LIBRARY RKC_RPG_AICONTROL
EXPORTS
	??0RKC_RPG_AICONTROL@@QAE@XZ=o_RKC_RPG_AICONTROL.??0RKC_RPG_AICONTROL@@QAE@XZ @1
	??0RKC_RPG_AIDATA@@QAE@XZ=o_RKC_RPG_AICONTROL.??0RKC_RPG_AIDATA@@QAE@XZ @2
	??0RKC_RPG_AIEVENT@@QAE@XZ=o_RKC_RPG_AICONTROL.??0RKC_RPG_AIEVENT@@QAE@XZ @3
	??0RKC_RPG_AILIST@@QAE@XZ=o_RKC_RPG_AICONTROL.??0RKC_RPG_AILIST@@QAE@XZ @4
	??1RKC_RPG_AICONTROL@@QAE@XZ=o_RKC_RPG_AICONTROL.??1RKC_RPG_AICONTROL@@QAE@XZ @5
	??1RKC_RPG_AIDATA@@QAE@XZ=o_RKC_RPG_AICONTROL.??1RKC_RPG_AIDATA@@QAE@XZ @6
	??1RKC_RPG_AIEVENT@@QAE@XZ=o_RKC_RPG_AICONTROL.??1RKC_RPG_AIEVENT@@QAE@XZ @7
	??1RKC_RPG_AILIST@@QAE@XZ=o_RKC_RPG_AICONTROL.??1RKC_RPG_AILIST@@QAE@XZ @8
	??4RKC_RPG_AICONTROL@@QAEAAV0@ABV0@@Z=o_RKC_RPG_AICONTROL.??4RKC_RPG_AICONTROL@@QAEAAV0@ABV0@@Z @9
	??4RKC_RPG_AIDATA@@QAEAAV0@ABV0@@Z=o_RKC_RPG_AICONTROL.??4RKC_RPG_AIDATA@@QAEAAV0@ABV0@@Z @10
	??4RKC_RPG_AIEVENT@@QAEAAV0@ABV0@@Z=o_RKC_RPG_AICONTROL.??4RKC_RPG_AIEVENT@@QAEAAV0@ABV0@@Z @11
	??4RKC_RPG_AILIST@@QAEAAV0@ABV0@@Z=o_RKC_RPG_AICONTROL.??4RKC_RPG_AILIST@@QAEAAV0@ABV0@@Z @12
	?Copy@RKC_RPG_AICONTROL@@QAEHPAV1@@Z=o_RKC_RPG_AICONTROL.?Copy@RKC_RPG_AICONTROL@@QAEHPAV1@@Z @13
	?Copy@RKC_RPG_AIDATA@@QAEHPAV1@@Z=o_RKC_RPG_AICONTROL.?Copy@RKC_RPG_AIDATA@@QAEHPAV1@@Z @14
	?Copy@RKC_RPG_AIEVENT@@QAEHPAV1@@Z=o_RKC_RPG_AICONTROL.?Copy@RKC_RPG_AIEVENT@@QAEHPAV1@@Z @15
	?Copy@RKC_RPG_AILIST@@QAEHPAV1@@Z=o_RKC_RPG_AICONTROL.?Copy@RKC_RPG_AILIST@@QAEHPAV1@@Z @16
	?Delete@RKC_RPG_AICONTROL@@QAEHJPAPAVRKC_RPG_AILIST@@@Z=o_RKC_RPG_AICONTROL.?Delete@RKC_RPG_AICONTROL@@QAEHJPAPAVRKC_RPG_AILIST@@@Z @17
	?Delete@RKC_RPG_AIEVENT@@QAEHJPAPAVRKC_RPG_AIDATA@@@Z=o_RKC_RPG_AICONTROL.?Delete@RKC_RPG_AIEVENT@@QAEHJPAPAVRKC_RPG_AIDATA@@@Z @18
	?Get@RKC_RPG_AICONTROL@@QAEPAVRKC_RPG_AILIST@@J@Z=o_RKC_RPG_AICONTROL.?Get@RKC_RPG_AICONTROL@@QAEPAVRKC_RPG_AILIST@@J@Z @19
	?Get@RKC_RPG_AIEVENT@@QAEPAVRKC_RPG_AIDATA@@J@Z=o_RKC_RPG_AICONTROL.?Get@RKC_RPG_AIEVENT@@QAEPAVRKC_RPG_AIDATA@@J@Z @20
	?Get@RKC_RPG_AILIST@@QAEPAVRKC_RPG_AIEVENT@@J@Z=o_RKC_RPG_AICONTROL.?Get@RKC_RPG_AILIST@@QAEPAVRKC_RPG_AIEVENT@@J@Z @21
	?GetAIData@RKC_RPG_AILIST@@QAEPAVRKC_RPG_AIDATA@@JJ@Z=o_RKC_RPG_AICONTROL.?GetAIData@RKC_RPG_AILIST@@QAEPAVRKC_RPG_AIDATA@@JJ@Z @22
	?GetAIDataCount@RKC_RPG_AILIST@@QAEJXZ=o_RKC_RPG_AICONTROL.?GetAIDataCount@RKC_RPG_AILIST@@QAEJXZ @23
	?GetAIDataFromAIDataNo@RKC_RPG_AILIST@@QAEPAVRKC_RPG_AIDATA@@J@Z=o_RKC_RPG_AICONTROL.?GetAIDataFromAIDataNo@RKC_RPG_AILIST@@QAEPAVRKC_RPG_AIDATA@@J@Z @24
	?GetActionNo@RKC_RPG_AIDATA@@QAEJXZ=o_RKC_RPG_AICONTROL.?GetActionNo@RKC_RPG_AIDATA@@QAEJXZ @25
	?GetCondition@RKC_RPG_AIDATA@@QAEPAURKC_RPG_AICONDITION@@XZ=o_RKC_RPG_AICONTROL.?GetCondition@RKC_RPG_AIDATA@@QAEPAURKC_RPG_AICONDITION@@XZ @26
	?GetCount@RKC_RPG_AICONTROL@@QAEJXZ=o_RKC_RPG_AICONTROL.?GetCount@RKC_RPG_AICONTROL@@QAEJXZ @27
	?GetCount@RKC_RPG_AIEVENT@@QAEJXZ=o_RKC_RPG_AICONTROL.?GetCount@RKC_RPG_AIEVENT@@QAEJXZ @28
	?GetCount@RKC_RPG_AILIST@@QAEJXZ=o_RKC_RPG_AICONTROL.?GetCount@RKC_RPG_AILIST@@QAEJXZ @29
	?GetEventNo@RKC_RPG_AIDATA@@QAEJXZ=o_RKC_RPG_AICONTROL.?GetEventNo@RKC_RPG_AIDATA@@QAEJXZ @30
	?GetEventNoFromAIDataNo@RKC_RPG_AILIST@@QAEJJ@Z=o_RKC_RPG_AICONTROL.?GetEventNoFromAIDataNo@RKC_RPG_AILIST@@QAEJJ@Z @31
	?GetFromName@RKC_RPG_AICONTROL@@QAEPAVRKC_RPG_AILIST@@PAD@Z=o_RKC_RPG_AICONTROL.?GetFromName@RKC_RPG_AICONTROL@@QAEPAVRKC_RPG_AILIST@@PAD@Z @32
	?GetName@RKC_RPG_AILIST@@QAEPADXZ=o_RKC_RPG_AICONTROL.?GetName@RKC_RPG_AILIST@@QAEPADXZ @33
	?GetNo@RKC_RPG_AICONTROL@@QAEJPAVRKC_RPG_AILIST@@@Z=o_RKC_RPG_AICONTROL.?GetNo@RKC_RPG_AICONTROL@@QAEJPAVRKC_RPG_AILIST@@@Z @34
	?GetNo@RKC_RPG_AIEVENT@@QAEJPAVRKC_RPG_AIDATA@@@Z=o_RKC_RPG_AICONTROL.?GetNo@RKC_RPG_AIEVENT@@QAEJPAVRKC_RPG_AIDATA@@@Z @35
	?GetParameter@RKC_RPG_AIDATA@@QAEPAURKC_RPG_AIPARAM@@XZ=o_RKC_RPG_AICONTROL.?GetParameter@RKC_RPG_AIDATA@@QAEPAURKC_RPG_AIPARAM@@XZ @36
	?GetWalkPointSpeed@RKC_RPG_AILIST@@QAEJXZ=o_RKC_RPG_AICONTROL.?GetWalkPointSpeed@RKC_RPG_AILIST@@QAEJXZ @37
	?Insert@RKC_RPG_AICONTROL@@QAEPAVRKC_RPG_AILIST@@JPAV2@@Z=o_RKC_RPG_AICONTROL.?Insert@RKC_RPG_AICONTROL@@QAEPAVRKC_RPG_AILIST@@JPAV2@@Z @38
	?Insert@RKC_RPG_AIEVENT@@QAEPAVRKC_RPG_AIDATA@@JPAV2@@Z=o_RKC_RPG_AICONTROL.?Insert@RKC_RPG_AIEVENT@@QAEPAVRKC_RPG_AIDATA@@JPAV2@@Z @39
	?ReadFile@RKC_RPG_AICONTROL@@QAEHPAD@Z=o_RKC_RPG_AICONTROL.?ReadFile@RKC_RPG_AICONTROL@@QAEHPAD@Z @40
	?Release@RKC_RPG_AICONTROL@@QAEXXZ=o_RKC_RPG_AICONTROL.?Release@RKC_RPG_AICONTROL@@QAEXXZ @41
	?Release@RKC_RPG_AIDATA@@QAEXXZ=o_RKC_RPG_AICONTROL.?Release@RKC_RPG_AIDATA@@QAEXXZ @42
	?Release@RKC_RPG_AIEVENT@@QAEXXZ=o_RKC_RPG_AICONTROL.?Release@RKC_RPG_AIEVENT@@QAEXXZ @43
	?Release@RKC_RPG_AILIST@@QAEXXZ=o_RKC_RPG_AICONTROL.?Release@RKC_RPG_AILIST@@QAEXXZ @44
	?SetActionNo@RKC_RPG_AIDATA@@QAEXJ@Z=o_RKC_RPG_AICONTROL.?SetActionNo@RKC_RPG_AIDATA@@QAEXJ@Z @45
	?SetCondition@RKC_RPG_AIDATA@@QAEXPAURKC_RPG_AICONDITION@@@Z=o_RKC_RPG_AICONTROL.?SetCondition@RKC_RPG_AIDATA@@QAEXPAURKC_RPG_AICONDITION@@@Z @46
	?SetEventNo@RKC_RPG_AIDATA@@QAEXJ@Z=o_RKC_RPG_AICONTROL.?SetEventNo@RKC_RPG_AIDATA@@QAEXJ@Z @47
	?SetName@RKC_RPG_AILIST@@QAEXPAD@Z=o_RKC_RPG_AICONTROL.?SetName@RKC_RPG_AILIST@@QAEXPAD@Z @48
	?SetParameter@RKC_RPG_AIDATA@@QAEXPAURKC_RPG_AIPARAM@@@Z=o_RKC_RPG_AICONTROL.?SetParameter@RKC_RPG_AIDATA@@QAEXPAURKC_RPG_AIPARAM@@@Z @49
	?SetWalkPointSpeed@RKC_RPG_AILIST@@QAEXJ@Z=o_RKC_RPG_AICONTROL.?SetWalkPointSpeed@RKC_RPG_AILIST@@QAEXJ@Z @50
	?WriteFile@RKC_RPG_AICONTROL@@QAEHPAD@Z=o_RKC_RPG_AICONTROL.?WriteFile@RKC_RPG_AICONTROL@@QAEHPAD@Z @51
