LIBRARY RKC_FONTMAKER
EXPORTS
	??0RKC_FONTMAKER@@QAE@XZ=RKC_FONTMAKER_constructor @1
	??1RKC_FONTMAKER@@QAE@XZ=RKC_FONTMAKER_deconstructor @2
	??4RKC_FONTMAKER@@QAEAAV0@ABV0@@Z=o_RKC_FONTMAKER.??4RKC_FONTMAKER@@QAEAAV0@ABV0@@Z @3
	?CreateDIB@RKC_FONTMAKER@@QAEHPAUHDC__@@@Z=CreateDIB @4
	?DrawDoubleFont@RKC_FONTMAKER@@QAEHPAUHDC__@@PAE@Z=DrawDoubleFont @5
	?DrawNormalFont@RKC_FONTMAKER@@QAEHPAUHDC__@@E@Z=o_RKC_FONTMAKER.?DrawNormalFont@RKC_FONTMAKER@@QAEHPAUHDC__@@E@Z @6
	?GetDoubleDDBitmap@RKC_FONTMAKER@@QAEPAUHBITMAP__@@XZ=o_RKC_FONTMAKER.?GetDoubleDDBitmap@RKC_FONTMAKER@@QAEPAUHBITMAP__@@XZ @7
	?GetDoubleDIBitmap@RKC_FONTMAKER@@QAEPAEXZ=o_RKC_FONTMAKER.?GetDoubleDIBitmap@RKC_FONTMAKER@@QAEPAEXZ @8
	?GetNormalDDBitmap@RKC_FONTMAKER@@QAEPAUHBITMAP__@@XZ=o_RKC_FONTMAKER.?GetNormalDDBitmap@RKC_FONTMAKER@@QAEPAUHBITMAP__@@XZ @9
	?GetNormalDIBitmap@RKC_FONTMAKER@@QAEPAEXZ=o_RKC_FONTMAKER.?GetNormalDIBitmap@RKC_FONTMAKER@@QAEPAEXZ @10
	?Initialize@RKC_FONTMAKER@@QAEHPAUHDC__@@JJPAD@Z=o_RKC_FONTMAKER.?Initialize@RKC_FONTMAKER@@QAEHPAUHDC__@@JJPAD@Z @11
	?Release@RKC_FONTMAKER@@QAEXXZ=o_RKC_FONTMAKER.?Release@RKC_FONTMAKER@@QAEXXZ @12
	?SaveNJPFile@RKC_FONTMAKER@@QAEHPAUHDC__@@PAD@Z=o_RKC_FONTMAKER.?SaveNJPFile@RKC_FONTMAKER@@QAEHPAUHDC__@@PAD@Z @13
