LIBRARY RKC_RPG_SCRIPT
EXPORTS
	??0RKC_RPG_SCRIPT@@QAE@XZ=o_RKC_RPG_SCRIPT.??0RKC_RPG_SCRIPT@@QAE@XZ @1
	??0RKC_RPG_SCRIPT_COMMAND@@QAE@XZ=o_RKC_RPG_SCRIPT.??0RKC_RPG_SCRIPT_COMMAND@@QAE@XZ @2
	??0RKC_RPG_SCRIPT_MESSAGE@@QAE@XZ=o_RKC_RPG_SCRIPT.??0RKC_RPG_SCRIPT_MESSAGE@@QAE@XZ @3
	??0RKC_RPG_SCRIPT_MESSAGEBLOCK@@QAE@XZ=o_RKC_RPG_SCRIPT.??0RKC_RPG_SCRIPT_MESSAGEBLOCK@@QAE@XZ @4
	??0RKC_RPG_SCRIPT_SENTENCE@@QAE@XZ=o_RKC_RPG_SCRIPT.??0RKC_RPG_SCRIPT_SENTENCE@@QAE@XZ @5
	??0RKC_RPG_SCRIPT_SENTENCEBLOCK@@QAE@XZ=o_RKC_RPG_SCRIPT.??0RKC_RPG_SCRIPT_SENTENCEBLOCK@@QAE@XZ @6
	??0RKC_RPG_SCRIPT_STATUS@@QAE@XZ=o_RKC_RPG_SCRIPT.??0RKC_RPG_SCRIPT_STATUS@@QAE@XZ @7
	??0RKC_RPG_SCRIPT_STATUSBLOCK@@QAE@XZ=o_RKC_RPG_SCRIPT.??0RKC_RPG_SCRIPT_STATUSBLOCK@@QAE@XZ @8
	??1RKC_RPG_SCRIPT@@QAE@XZ=o_RKC_RPG_SCRIPT.??1RKC_RPG_SCRIPT@@QAE@XZ @9
	??1RKC_RPG_SCRIPT_COMMAND@@QAE@XZ=o_RKC_RPG_SCRIPT.??1RKC_RPG_SCRIPT_COMMAND@@QAE@XZ @10
	??1RKC_RPG_SCRIPT_MESSAGE@@QAE@XZ=o_RKC_RPG_SCRIPT.??1RKC_RPG_SCRIPT_MESSAGE@@QAE@XZ @11
	??1RKC_RPG_SCRIPT_MESSAGEBLOCK@@QAE@XZ=o_RKC_RPG_SCRIPT.??1RKC_RPG_SCRIPT_MESSAGEBLOCK@@QAE@XZ @12
	??1RKC_RPG_SCRIPT_SENTENCE@@QAE@XZ=o_RKC_RPG_SCRIPT.??1RKC_RPG_SCRIPT_SENTENCE@@QAE@XZ @13
	??1RKC_RPG_SCRIPT_SENTENCEBLOCK@@QAE@XZ=o_RKC_RPG_SCRIPT.??1RKC_RPG_SCRIPT_SENTENCEBLOCK@@QAE@XZ @14
	??1RKC_RPG_SCRIPT_STATUS@@QAE@XZ=o_RKC_RPG_SCRIPT.??1RKC_RPG_SCRIPT_STATUS@@QAE@XZ @15
	??1RKC_RPG_SCRIPT_STATUSBLOCK@@QAE@XZ=o_RKC_RPG_SCRIPT.??1RKC_RPG_SCRIPT_STATUSBLOCK@@QAE@XZ @16
	??4RKC_RPG_SCRIPT@@QAEAAV0@ABV0@@Z=o_RKC_RPG_SCRIPT.??4RKC_RPG_SCRIPT@@QAEAAV0@ABV0@@Z @17
	??4RKC_RPG_SCRIPT_COMMAND@@QAEAAV0@ABV0@@Z=o_RKC_RPG_SCRIPT.??4RKC_RPG_SCRIPT_COMMAND@@QAEAAV0@ABV0@@Z @18
	??4RKC_RPG_SCRIPT_MESSAGE@@QAEAAV0@ABV0@@Z=o_RKC_RPG_SCRIPT.??4RKC_RPG_SCRIPT_MESSAGE@@QAEAAV0@ABV0@@Z @19
	??4RKC_RPG_SCRIPT_MESSAGEBLOCK@@QAEAAV0@ABV0@@Z=o_RKC_RPG_SCRIPT.??4RKC_RPG_SCRIPT_MESSAGEBLOCK@@QAEAAV0@ABV0@@Z @20
	??4RKC_RPG_SCRIPT_SENTENCE@@QAEAAV0@ABV0@@Z=o_RKC_RPG_SCRIPT.??4RKC_RPG_SCRIPT_SENTENCE@@QAEAAV0@ABV0@@Z @21
	??4RKC_RPG_SCRIPT_SENTENCEBLOCK@@QAEAAV0@ABV0@@Z=o_RKC_RPG_SCRIPT.??4RKC_RPG_SCRIPT_SENTENCEBLOCK@@QAEAAV0@ABV0@@Z @22
	??4RKC_RPG_SCRIPT_STATUS@@QAEAAV0@ABV0@@Z=o_RKC_RPG_SCRIPT.??4RKC_RPG_SCRIPT_STATUS@@QAEAAV0@ABV0@@Z @23
	??4RKC_RPG_SCRIPT_STATUSBLOCK@@QAEAAV0@ABV0@@Z=o_RKC_RPG_SCRIPT.??4RKC_RPG_SCRIPT_STATUSBLOCK@@QAEAAV0@ABV0@@Z @24
	?AnalyzeCharacterNo@RKC_RPG_SCRIPT@@QAEJPAD@Z=o_RKC_RPG_SCRIPT.?AnalyzeCharacterNo@RKC_RPG_SCRIPT@@QAEJPAD@Z @25
	?AnalyzeCommand@RKC_RPG_SCRIPT@@QAEHPADPAVRKC_RPG_SCRIPT_COMMAND@@@Z=o_RKC_RPG_SCRIPT.?AnalyzeCommand@RKC_RPG_SCRIPT@@QAEHPADPAVRKC_RPG_SCRIPT_COMMAND@@@Z @26
	?AnalyzeOPERAND@RKC_RPG_SCRIPT@@QAEHPADPAURKC_RPG_SCRIPT_COMMAND_OPERAND@@@Z=o_RKC_RPG_SCRIPT.?AnalyzeOPERAND@RKC_RPG_SCRIPT@@QAEHPADPAURKC_RPG_SCRIPT_COMMAND_OPERAND@@@Z @27
	?AnalyzeOPERAND_NETFLAG@RKC_RPG_SCRIPT@@QAEJPAD@Z=o_RKC_RPG_SCRIPT.?AnalyzeOPERAND_NETFLAG@RKC_RPG_SCRIPT@@QAEJPAD@Z @28
	?AnalyzeOperator@RKC_RPG_SCRIPT@@QAEHPADPAURKC_RPG_SCRIPT_COMMAND_OPERAND@@@Z=o_RKC_RPG_SCRIPT.?AnalyzeOperator@RKC_RPG_SCRIPT@@QAEHPADPAURKC_RPG_SCRIPT_COMMAND_OPERAND@@@Z @29
	?Delete@RKC_RPG_SCRIPT_MESSAGEBLOCK@@QAEHJPAPAVRKC_RPG_SCRIPT_MESSAGE@@@Z=o_RKC_RPG_SCRIPT.?Delete@RKC_RPG_SCRIPT_MESSAGEBLOCK@@QAEHJPAPAVRKC_RPG_SCRIPT_MESSAGE@@@Z @30
	?Delete@RKC_RPG_SCRIPT_SENTENCE@@QAEHJPAPAVRKC_RPG_SCRIPT_COMMAND@@@Z=o_RKC_RPG_SCRIPT.?Delete@RKC_RPG_SCRIPT_SENTENCE@@QAEHJPAPAVRKC_RPG_SCRIPT_COMMAND@@@Z @31
	?Delete@RKC_RPG_SCRIPT_SENTENCEBLOCK@@QAEHJPAPAVRKC_RPG_SCRIPT_SENTENCE@@@Z=o_RKC_RPG_SCRIPT.?Delete@RKC_RPG_SCRIPT_SENTENCEBLOCK@@QAEHJPAPAVRKC_RPG_SCRIPT_SENTENCE@@@Z @32
	?Delete@RKC_RPG_SCRIPT_STATUSBLOCK@@QAEHJPAPAVRKC_RPG_SCRIPT_STATUS@@@Z=o_RKC_RPG_SCRIPT.?Delete@RKC_RPG_SCRIPT_STATUSBLOCK@@QAEHJPAPAVRKC_RPG_SCRIPT_STATUS@@@Z @33
	?Get@RKC_RPG_SCRIPT_MESSAGEBLOCK@@QAEPAVRKC_RPG_SCRIPT_MESSAGE@@J@Z=o_RKC_RPG_SCRIPT.?Get@RKC_RPG_SCRIPT_MESSAGEBLOCK@@QAEPAVRKC_RPG_SCRIPT_MESSAGE@@J@Z @34
	?Get@RKC_RPG_SCRIPT_SENTENCE@@QAEPAVRKC_RPG_SCRIPT_COMMAND@@J@Z=o_RKC_RPG_SCRIPT.?Get@RKC_RPG_SCRIPT_SENTENCE@@QAEPAVRKC_RPG_SCRIPT_COMMAND@@J@Z @35
	?Get@RKC_RPG_SCRIPT_SENTENCEBLOCK@@QAEPAVRKC_RPG_SCRIPT_SENTENCE@@J@Z=o_RKC_RPG_SCRIPT.?Get@RKC_RPG_SCRIPT_SENTENCEBLOCK@@QAEPAVRKC_RPG_SCRIPT_SENTENCE@@J@Z @36
	?Get@RKC_RPG_SCRIPT_STATUSBLOCK@@QAEPAVRKC_RPG_SCRIPT_STATUS@@J@Z=o_RKC_RPG_SCRIPT.?Get@RKC_RPG_SCRIPT_STATUSBLOCK@@QAEPAVRKC_RPG_SCRIPT_STATUS@@J@Z @37
	?Get@RKC_RPG_SCRIPT_STATUSBLOCK@@QAEPAVRKC_RPG_SCRIPT_STATUS@@JJ@Z=o_RKC_RPG_SCRIPT.?Get@RKC_RPG_SCRIPT_STATUSBLOCK@@QAEPAVRKC_RPG_SCRIPT_STATUS@@JJ@Z @38
	?GetCharacterNo@RKC_RPG_SCRIPT_STATUS@@QAEJXZ=o_RKC_RPG_SCRIPT.?GetCharacterNo@RKC_RPG_SCRIPT_STATUS@@QAEJXZ @39
	?GetCount@RKC_RPG_SCRIPT_MESSAGEBLOCK@@QAEJXZ=o_RKC_RPG_SCRIPT.?GetCount@RKC_RPG_SCRIPT_MESSAGEBLOCK@@QAEJXZ @40
	?GetCount@RKC_RPG_SCRIPT_SENTENCE@@QAEJXZ=o_RKC_RPG_SCRIPT.?GetCount@RKC_RPG_SCRIPT_SENTENCE@@QAEJXZ @41
	?GetCount@RKC_RPG_SCRIPT_SENTENCEBLOCK@@QAEJXZ=o_RKC_RPG_SCRIPT.?GetCount@RKC_RPG_SCRIPT_SENTENCEBLOCK@@QAEJXZ @42
	?GetCount@RKC_RPG_SCRIPT_STATUSBLOCK@@QAEJXZ=o_RKC_RPG_SCRIPT.?GetCount@RKC_RPG_SCRIPT_STATUSBLOCK@@QAEJXZ @43
	?GetData@RKC_RPG_SCRIPT_MESSAGE@@QAEPADXZ=o_RKC_RPG_SCRIPT.?GetData@RKC_RPG_SCRIPT_MESSAGE@@QAEPADXZ @44
	?GetFromID@RKC_RPG_SCRIPT_MESSAGEBLOCK@@QAEPAVRKC_RPG_SCRIPT_MESSAGE@@J@Z=o_RKC_RPG_SCRIPT.?GetFromID@RKC_RPG_SCRIPT_MESSAGEBLOCK@@QAEPAVRKC_RPG_SCRIPT_MESSAGE@@J@Z @45
	?GetID@RKC_RPG_SCRIPT_MESSAGE@@QAEJXZ=o_RKC_RPG_SCRIPT.?GetID@RKC_RPG_SCRIPT_MESSAGE@@QAEJXZ @46
	?GetMessageBlock@RKC_RPG_SCRIPT@@QAEPAVRKC_RPG_SCRIPT_MESSAGEBLOCK@@XZ=o_RKC_RPG_SCRIPT.?GetMessageBlock@RKC_RPG_SCRIPT@@QAEPAVRKC_RPG_SCRIPT_MESSAGEBLOCK@@XZ @47
	?GetMessageNoFromName@RKC_RPG_SCRIPT_MESSAGEBLOCK@@QAEJPAD@Z=o_RKC_RPG_SCRIPT.?GetMessageNoFromName@RKC_RPG_SCRIPT_MESSAGEBLOCK@@QAEJPAD@Z @48
	?GetName@RKC_RPG_SCRIPT_MESSAGE@@QAEPADXZ=o_RKC_RPG_SCRIPT.?GetName@RKC_RPG_SCRIPT_MESSAGE@@QAEPADXZ @49
	?GetNetFlag@RKC_RPG_SCRIPT@@QAEJJ@Z=o_RKC_RPG_SCRIPT.?GetNetFlag@RKC_RPG_SCRIPT@@QAEJJ@Z @50
	?GetNetFlag@RKC_RPG_SCRIPT@@QAEPAURKC_RPG_SCRIPT_FLAG@@XZ=o_RKC_RPG_SCRIPT.?GetNetFlag@RKC_RPG_SCRIPT@@QAEPAURKC_RPG_SCRIPT_FLAG@@XZ @51
	?GetNetFlagCount@RKC_RPG_SCRIPT@@QAEJXZ=o_RKC_RPG_SCRIPT.?GetNetFlagCount@RKC_RPG_SCRIPT@@QAEJXZ @52
	?GetNetworkFlag@RKC_RPG_SCRIPT_STATUS@@QAEHXZ=o_RKC_RPG_SCRIPT.?GetNetworkFlag@RKC_RPG_SCRIPT_STATUS@@QAEHXZ @53
	?GetNo@RKC_RPG_SCRIPT_MESSAGEBLOCK@@QAEJPAVRKC_RPG_SCRIPT_MESSAGE@@@Z=o_RKC_RPG_SCRIPT.?GetNo@RKC_RPG_SCRIPT_MESSAGEBLOCK@@QAEJPAVRKC_RPG_SCRIPT_MESSAGE@@@Z @54
	?GetNo@RKC_RPG_SCRIPT_SENTENCE@@QAEJPAVRKC_RPG_SCRIPT_COMMAND@@@Z=o_RKC_RPG_SCRIPT.?GetNo@RKC_RPG_SCRIPT_SENTENCE@@QAEJPAVRKC_RPG_SCRIPT_COMMAND@@@Z @55
	?GetNo@RKC_RPG_SCRIPT_SENTENCEBLOCK@@QAEJPAVRKC_RPG_SCRIPT_SENTENCE@@@Z=o_RKC_RPG_SCRIPT.?GetNo@RKC_RPG_SCRIPT_SENTENCEBLOCK@@QAEJPAVRKC_RPG_SCRIPT_SENTENCE@@@Z @56
	?GetNo@RKC_RPG_SCRIPT_STATUSBLOCK@@QAEJPAVRKC_RPG_SCRIPT_STATUS@@@Z=o_RKC_RPG_SCRIPT.?GetNo@RKC_RPG_SCRIPT_STATUSBLOCK@@QAEJPAVRKC_RPG_SCRIPT_STATUS@@@Z @57
	?GetOpecode@RKC_RPG_SCRIPT_COMMAND@@QAEJXZ=o_RKC_RPG_SCRIPT.?GetOpecode@RKC_RPG_SCRIPT_COMMAND@@QAEJXZ @58
	?GetOperand@RKC_RPG_SCRIPT_COMMAND@@QAEPAURKC_RPG_SCRIPT_COMMAND_OPERAND@@J@Z=o_RKC_RPG_SCRIPT.?GetOperand@RKC_RPG_SCRIPT_COMMAND@@QAEPAURKC_RPG_SCRIPT_COMMAND_OPERAND@@J@Z @59
	?GetOperandCount@RKC_RPG_SCRIPT_COMMAND@@QAEJXZ=o_RKC_RPG_SCRIPT.?GetOperandCount@RKC_RPG_SCRIPT_COMMAND@@QAEJXZ @60
	?GetSentence@RKC_RPG_SCRIPT_STATUS@@QAEJXZ=o_RKC_RPG_SCRIPT.?GetSentence@RKC_RPG_SCRIPT_STATUS@@QAEJXZ @61
	?GetSentenceBlock@RKC_RPG_SCRIPT@@QAEPAVRKC_RPG_SCRIPT_SENTENCEBLOCK@@XZ=o_RKC_RPG_SCRIPT.?GetSentenceBlock@RKC_RPG_SCRIPT@@QAEPAVRKC_RPG_SCRIPT_SENTENCEBLOCK@@XZ @62
	?GetStatus@RKC_RPG_SCRIPT_STATUS@@QAEJXZ=o_RKC_RPG_SCRIPT.?GetStatus@RKC_RPG_SCRIPT_STATUS@@QAEJXZ @63
	?GetStatusBlock@RKC_RPG_SCRIPT@@QAEPAVRKC_RPG_SCRIPT_STATUSBLOCK@@XZ=o_RKC_RPG_SCRIPT.?GetStatusBlock@RKC_RPG_SCRIPT@@QAEPAVRKC_RPG_SCRIPT_STATUSBLOCK@@XZ @64
	?GetTempFlag@RKC_RPG_SCRIPT@@QAEJJ@Z=o_RKC_RPG_SCRIPT.?GetTempFlag@RKC_RPG_SCRIPT@@QAEJJ@Z @65
	?GetTempFlag@RKC_RPG_SCRIPT@@QAEPAURKC_RPG_SCRIPT_FLAG@@XZ=o_RKC_RPG_SCRIPT.?GetTempFlag@RKC_RPG_SCRIPT@@QAEPAURKC_RPG_SCRIPT_FLAG@@XZ @66
	?GetTempFlagCount@RKC_RPG_SCRIPT@@QAEJXZ=o_RKC_RPG_SCRIPT.?GetTempFlagCount@RKC_RPG_SCRIPT@@QAEJXZ @67
	?Insert@RKC_RPG_SCRIPT_MESSAGEBLOCK@@QAEPAVRKC_RPG_SCRIPT_MESSAGE@@JPAV2@@Z=o_RKC_RPG_SCRIPT.?Insert@RKC_RPG_SCRIPT_MESSAGEBLOCK@@QAEPAVRKC_RPG_SCRIPT_MESSAGE@@JPAV2@@Z @68
	?Insert@RKC_RPG_SCRIPT_SENTENCE@@QAEPAVRKC_RPG_SCRIPT_COMMAND@@JPAV2@@Z=o_RKC_RPG_SCRIPT.?Insert@RKC_RPG_SCRIPT_SENTENCE@@QAEPAVRKC_RPG_SCRIPT_COMMAND@@JPAV2@@Z @69
	?Insert@RKC_RPG_SCRIPT_SENTENCEBLOCK@@QAEPAVRKC_RPG_SCRIPT_SENTENCE@@JPAV2@@Z=o_RKC_RPG_SCRIPT.?Insert@RKC_RPG_SCRIPT_SENTENCEBLOCK@@QAEPAVRKC_RPG_SCRIPT_SENTENCE@@JPAV2@@Z @70
	?Insert@RKC_RPG_SCRIPT_STATUSBLOCK@@QAEPAVRKC_RPG_SCRIPT_STATUS@@JPAV2@@Z=o_RKC_RPG_SCRIPT.?Insert@RKC_RPG_SCRIPT_STATUSBLOCK@@QAEPAVRKC_RPG_SCRIPT_STATUS@@JPAV2@@Z @71
	?ReadBinary@RKC_RPG_SCRIPT@@QAEHPAD@Z=o_RKC_RPG_SCRIPT.?ReadBinary@RKC_RPG_SCRIPT@@QAEHPAD@Z @72
	?ReadSentence@RKC_RPG_SCRIPT@@QAEHPAU_iobuf@@PAVRKC_RPG_SCRIPT_SENTENCE@@@Z=o_RKC_RPG_SCRIPT.?ReadSentence@RKC_RPG_SCRIPT@@QAEHPAU_iobuf@@PAVRKC_RPG_SCRIPT_SENTENCE@@@Z @73
	?ReadText@RKC_RPG_SCRIPT@@QAEHPAD@Z=o_RKC_RPG_SCRIPT.?ReadText@RKC_RPG_SCRIPT@@QAEHPAD@Z @74
	?Release@RKC_RPG_SCRIPT@@QAEXXZ=o_RKC_RPG_SCRIPT.?Release@RKC_RPG_SCRIPT@@QAEXXZ @75
	?Release@RKC_RPG_SCRIPT_COMMAND@@QAEXXZ=o_RKC_RPG_SCRIPT.?Release@RKC_RPG_SCRIPT_COMMAND@@QAEXXZ @76
	?Release@RKC_RPG_SCRIPT_MESSAGE@@QAEXXZ=o_RKC_RPG_SCRIPT.?Release@RKC_RPG_SCRIPT_MESSAGE@@QAEXXZ @77
	?Release@RKC_RPG_SCRIPT_MESSAGEBLOCK@@QAEXXZ=o_RKC_RPG_SCRIPT.?Release@RKC_RPG_SCRIPT_MESSAGEBLOCK@@QAEXXZ @78
	?Release@RKC_RPG_SCRIPT_SENTENCE@@QAEXXZ=o_RKC_RPG_SCRIPT.?Release@RKC_RPG_SCRIPT_SENTENCE@@QAEXXZ @79
	?Release@RKC_RPG_SCRIPT_SENTENCEBLOCK@@QAEXXZ=o_RKC_RPG_SCRIPT.?Release@RKC_RPG_SCRIPT_SENTENCEBLOCK@@QAEXXZ @80
	?Release@RKC_RPG_SCRIPT_STATUSBLOCK@@QAEXXZ=o_RKC_RPG_SCRIPT.?Release@RKC_RPG_SCRIPT_STATUSBLOCK@@QAEXXZ @81
	?WriteBinary@RKC_RPG_SCRIPT@@QAEHPAD@Z=o_RKC_RPG_SCRIPT.?WriteBinary@RKC_RPG_SCRIPT@@QAEHPAD@Z @82
