LIBRARY RKC_DSOUND
EXPORTS
	??0RKC_DSOUND@@QAE@XZ=o_RKC_DSOUND.??0RKC_DSOUND@@QAE@XZ @1
	??0RKC_DSOUND_VOC@@QAE@XZ=o_RKC_DSOUND.??0RKC_DSOUND_VOC@@QAE@XZ @2
	??0RKC_DSOUND_VOICE@@QAE@XZ=o_RKC_DSOUND.??0RKC_DSOUND_VOICE@@QAE@XZ @3
	??1RKC_DSOUND@@QAE@XZ=o_RKC_DSOUND.??1RKC_DSOUND@@QAE@XZ @4
	??1RKC_DSOUND_VOC@@QAE@XZ=o_RKC_DSOUND.??1RKC_DSOUND_VOC@@QAE@XZ @5
	??1RKC_DSOUND_VOICE@@QAE@XZ=o_RKC_DSOUND.??1RKC_DSOUND_VOICE@@QAE@XZ @6
	??4RKC_DSOUND@@QAEAAV0@ABV0@@Z=o_RKC_DSOUND.??4RKC_DSOUND@@QAEAAV0@ABV0@@Z @7
	??4RKC_DSOUND_VOC@@QAEAAV0@ABV0@@Z=o_RKC_DSOUND.??4RKC_DSOUND_VOC@@QAEAAV0@ABV0@@Z @8
	??4RKC_DSOUND_VOICE@@QAEAAV0@ABV0@@Z=o_RKC_DSOUND.??4RKC_DSOUND_VOICE@@QAEAAV0@ABV0@@Z @9
	?GetBuffer@RKC_DSOUND_VOICE@@QAEPAUIDirectSoundBuffer@@XZ=o_RKC_DSOUND.?GetBuffer@RKC_DSOUND_VOICE@@QAEPAUIDirectSoundBuffer@@XZ @10
	?GetFormat@RKC_DSOUND_VOICE@@QAEPAUtWAVEFORMATEX@@XZ=o_RKC_DSOUND.?GetFormat@RKC_DSOUND_VOICE@@QAEPAUtWAVEFORMATEX@@XZ @11
	?GetName@RKC_DSOUND_VOICE@@QAEPADXZ=o_RKC_DSOUND.?GetName@RKC_DSOUND_VOICE@@QAEPADXZ @12
	?GetPlayStatus@RKC_DSOUND@@QAEHJJ@Z=o_RKC_DSOUND.?GetPlayStatus@RKC_DSOUND@@QAEHJJ@Z @13
	?GetPlayStatus@RKC_DSOUND_VOC@@QAEHJ@Z=o_RKC_DSOUND.?GetPlayStatus@RKC_DSOUND_VOC@@QAEHJ@Z @14
	?GetPlayStatus@RKC_DSOUND_VOICE@@QAEHXZ=o_RKC_DSOUND.?GetPlayStatus@RKC_DSOUND_VOICE@@QAEHXZ @15
	?GetSize@RKC_DSOUND_VOICE@@QAEJXZ=o_RKC_DSOUND.?GetSize@RKC_DSOUND_VOICE@@QAEJXZ @16
	?GetSoundObject@RKC_DSOUND@@QAEPAUIDirectSound@@XZ=o_RKC_DSOUND.?GetSoundObject@RKC_DSOUND@@QAEPAUIDirectSound@@XZ @17
	?GetVoice@RKC_DSOUND@@QAEPAVRKC_DSOUND_VOICE@@JJ@Z=o_RKC_DSOUND.?GetVoice@RKC_DSOUND@@QAEPAVRKC_DSOUND_VOICE@@JJ@Z @18
	?GetVolume@RKC_DSOUND@@QAEJJJ@Z=o_RKC_DSOUND.?GetVolume@RKC_DSOUND@@QAEJJJ@Z @19
	?GetVolume@RKC_DSOUND_VOC@@QAEJJ@Z=o_RKC_DSOUND.?GetVolume@RKC_DSOUND_VOC@@QAEJJ@Z @20
	?GetVolume@RKC_DSOUND_VOICE@@QAEJXZ=o_RKC_DSOUND.?GetVolume@RKC_DSOUND_VOICE@@QAEJXZ @21
	?Initialize@RKC_DSOUND@@QAEHPAUHWND__@@J@Z=o_RKC_DSOUND.?Initialize@RKC_DSOUND@@QAEHPAUHWND__@@J@Z @22
	?Play@RKC_DSOUND@@QAEJJJHJJ@Z=o_RKC_DSOUND.?Play@RKC_DSOUND@@QAEJJJHJJ@Z @23
	?Play@RKC_DSOUND_VOC@@QAEJJHJJ@Z=o_RKC_DSOUND.?Play@RKC_DSOUND_VOC@@QAEJJHJJ@Z @24
	?Play@RKC_DSOUND_VOICE@@QAEXHJJ@Z=o_RKC_DSOUND.?Play@RKC_DSOUND_VOICE@@QAEXHJJ@Z @25
	?Read@RKC_DSOUND_VOC@@QAEHPAUIDirectSound@@PAD@Z=o_RKC_DSOUND.?Read@RKC_DSOUND_VOC@@QAEHPAUIDirectSound@@PAD@Z @26
	?ReadVocFile@RKC_DSOUND@@QAEHPADJ@Z=o_RKC_DSOUND.?ReadVocFile@RKC_DSOUND@@QAEHPADJ@Z @27
	?Release@RKC_DSOUND@@QAEXXZ=o_RKC_DSOUND.?Release@RKC_DSOUND@@QAEXXZ @28
	?Release@RKC_DSOUND_VOC@@QAEXXZ=o_RKC_DSOUND.?Release@RKC_DSOUND_VOC@@QAEXXZ @29
	?Release@RKC_DSOUND_VOICE@@QAEXXZ=o_RKC_DSOUND.?Release@RKC_DSOUND_VOICE@@QAEXXZ @30
	?ReleaseVoc@RKC_DSOUND@@QAEXJ@Z=o_RKC_DSOUND.?ReleaseVoc@RKC_DSOUND@@QAEXJ@Z @31
	?SetBuffer@RKC_DSOUND_VOICE@@QAEXPAUIDirectSoundBuffer@@@Z=o_RKC_DSOUND.?SetBuffer@RKC_DSOUND_VOICE@@QAEXPAUIDirectSoundBuffer@@@Z @32
	?SetFormat@RKC_DSOUND_VOICE@@QAEXPAUtWAVEFORMATEX@@@Z=o_RKC_DSOUND.?SetFormat@RKC_DSOUND_VOICE@@QAEXPAUtWAVEFORMATEX@@@Z @33
	?SetImage@RKC_DSOUND_VOICE@@QAEXPADJ@Z=o_RKC_DSOUND.?SetImage@RKC_DSOUND_VOICE@@QAEXPADJ@Z @34
	?SetName@RKC_DSOUND_VOICE@@QAEXPAD@Z=o_RKC_DSOUND.?SetName@RKC_DSOUND_VOICE@@QAEXPAD@Z @35
	?SetSize@RKC_DSOUND_VOICE@@QAEXJ@Z=o_RKC_DSOUND.?SetSize@RKC_DSOUND_VOICE@@QAEXJ@Z @36
	?SetVocCount@RKC_DSOUND@@QAEHJ@Z=o_RKC_DSOUND.?SetVocCount@RKC_DSOUND@@QAEHJ@Z @37
	?SetVolume@RKC_DSOUND@@QAEXJJJ@Z=o_RKC_DSOUND.?SetVolume@RKC_DSOUND@@QAEXJJJ@Z @38
	?SetVolume@RKC_DSOUND_VOC@@QAEXJJ@Z=o_RKC_DSOUND.?SetVolume@RKC_DSOUND_VOC@@QAEXJJ@Z @39
	?SetVolume@RKC_DSOUND_VOICE@@QAEXJ@Z=o_RKC_DSOUND.?SetVolume@RKC_DSOUND_VOICE@@QAEXJ@Z @40
	?Stop@RKC_DSOUND@@QAEXJJ@Z=o_RKC_DSOUND.?Stop@RKC_DSOUND@@QAEXJJ@Z @41
	?Stop@RKC_DSOUND_VOC@@QAEXJ@Z=o_RKC_DSOUND.?Stop@RKC_DSOUND_VOC@@QAEXJ@Z @42
	?Stop@RKC_DSOUND_VOICE@@QAEXXZ=o_RKC_DSOUND.?Stop@RKC_DSOUND_VOICE@@QAEXXZ @43
