LIBRARY RKC_RPGSCRN
EXPORTS
	??0RKC_RPGSCRN@@QAE@XZ=o_RKC_RPGSCRN.??0RKC_RPGSCRN@@QAE@XZ @1
	??0RKC_RPGSCRN_CHARANIM@@QAE@XZ=o_RKC_RPGSCRN.??0RKC_RPGSCRN_CHARANIM@@QAE@XZ @2
	??0RKC_RPGSCRN_CHARANIMBLOCK@@QAE@XZ=o_RKC_RPGSCRN.??0RKC_RPGSCRN_CHARANIMBLOCK@@QAE@XZ @3
	??0RKC_RPGSCRN_CHARANIMCELL@@QAE@XZ=o_RKC_RPGSCRN.??0RKC_RPGSCRN_CHARANIMCELL@@QAE@XZ @4
	??0RKC_RPGSCRN_CHARANIMCELLBLOCK@@QAE@XZ=o_RKC_RPGSCRN.??0RKC_RPGSCRN_CHARANIMCELLBLOCK@@QAE@XZ @5
	??0RKC_RPGSCRN_CHARANIMCHART@@QAE@XZ=o_RKC_RPGSCRN.??0RKC_RPGSCRN_CHARANIMCHART@@QAE@XZ @6
	??0RKC_RPGSCRN_GROUNDBLOCK@@QAE@XZ=o_RKC_RPGSCRN.??0RKC_RPGSCRN_GROUNDBLOCK@@QAE@XZ @7
	??0RKC_RPGSCRN_OBJECT@@QAE@XZ=o_RKC_RPGSCRN.??0RKC_RPGSCRN_OBJECT@@QAE@XZ @8
	??0RKC_RPGSCRN_OBJECTBLOCK@@QAE@XZ=o_RKC_RPGSCRN.??0RKC_RPGSCRN_OBJECTBLOCK@@QAE@XZ @9
	??0RKC_RPGSCRN_OBJECTDISP@@QAE@PAVRKC_RPGSCRN@@@Z=o_RKC_RPGSCRN.??0RKC_RPGSCRN_OBJECTDISP@@QAE@PAVRKC_RPGSCRN@@@Z @10
	??0RKC_RPGSCRN_OBJECTDISP@@QAE@XZ=o_RKC_RPGSCRN.??0RKC_RPGSCRN_OBJECTDISP@@QAE@XZ @11
	??0RKC_RPGSCRN_OBJECTDISPCELL@@QAE@XZ=o_RKC_RPGSCRN.??0RKC_RPGSCRN_OBJECTDISPCELL@@QAE@XZ @12
	??1RKC_RPGSCRN@@QAE@XZ=o_RKC_RPGSCRN.??1RKC_RPGSCRN@@QAE@XZ @13
	??1RKC_RPGSCRN_CHARANIM@@QAE@XZ=o_RKC_RPGSCRN.??1RKC_RPGSCRN_CHARANIM@@QAE@XZ @14
	??1RKC_RPGSCRN_CHARANIMBLOCK@@QAE@XZ=o_RKC_RPGSCRN.??1RKC_RPGSCRN_CHARANIMBLOCK@@QAE@XZ @15
	??1RKC_RPGSCRN_CHARANIMCELL@@QAE@XZ=o_RKC_RPGSCRN.??1RKC_RPGSCRN_CHARANIMCELL@@QAE@XZ @16
	??1RKC_RPGSCRN_CHARANIMCELLBLOCK@@QAE@XZ=o_RKC_RPGSCRN.??1RKC_RPGSCRN_CHARANIMCELLBLOCK@@QAE@XZ @17
	??1RKC_RPGSCRN_CHARANIMCHART@@QAE@XZ=o_RKC_RPGSCRN.??1RKC_RPGSCRN_CHARANIMCHART@@QAE@XZ @18
	??1RKC_RPGSCRN_GROUNDBLOCK@@QAE@XZ=o_RKC_RPGSCRN.??1RKC_RPGSCRN_GROUNDBLOCK@@QAE@XZ @19
	??1RKC_RPGSCRN_OBJECT@@QAE@XZ=o_RKC_RPGSCRN.??1RKC_RPGSCRN_OBJECT@@QAE@XZ @20
	??1RKC_RPGSCRN_OBJECTBLOCK@@QAE@XZ=o_RKC_RPGSCRN.??1RKC_RPGSCRN_OBJECTBLOCK@@QAE@XZ @21
	??1RKC_RPGSCRN_OBJECTDISP@@QAE@XZ=o_RKC_RPGSCRN.??1RKC_RPGSCRN_OBJECTDISP@@QAE@XZ @22
	??1RKC_RPGSCRN_OBJECTDISPCELL@@QAE@XZ=o_RKC_RPGSCRN.??1RKC_RPGSCRN_OBJECTDISPCELL@@QAE@XZ @23
	??4RKC_RPGSCRN@@QAEAAV0@ABV0@@Z=o_RKC_RPGSCRN.??4RKC_RPGSCRN@@QAEAAV0@ABV0@@Z @24
	??4RKC_RPGSCRN_CHARANIM@@QAEAAV0@ABV0@@Z=o_RKC_RPGSCRN.??4RKC_RPGSCRN_CHARANIM@@QAEAAV0@ABV0@@Z @25
	??4RKC_RPGSCRN_CHARANIMBLOCK@@QAEAAV0@ABV0@@Z=o_RKC_RPGSCRN.??4RKC_RPGSCRN_CHARANIMBLOCK@@QAEAAV0@ABV0@@Z @26
	??4RKC_RPGSCRN_CHARANIMCELL@@QAEAAV0@ABV0@@Z=o_RKC_RPGSCRN.??4RKC_RPGSCRN_CHARANIMCELL@@QAEAAV0@ABV0@@Z @27
	??4RKC_RPGSCRN_CHARANIMCELLBLOCK@@QAEAAV0@ABV0@@Z=o_RKC_RPGSCRN.??4RKC_RPGSCRN_CHARANIMCELLBLOCK@@QAEAAV0@ABV0@@Z @28
	??4RKC_RPGSCRN_CHARANIMCHART@@QAEAAV0@ABV0@@Z=o_RKC_RPGSCRN.??4RKC_RPGSCRN_CHARANIMCHART@@QAEAAV0@ABV0@@Z @29
	??4RKC_RPGSCRN_GROUNDBLOCK@@QAEAAV0@ABV0@@Z=o_RKC_RPGSCRN.??4RKC_RPGSCRN_GROUNDBLOCK@@QAEAAV0@ABV0@@Z @30
	??4RKC_RPGSCRN_OBJECT@@QAEAAV0@ABV0@@Z=o_RKC_RPGSCRN.??4RKC_RPGSCRN_OBJECT@@QAEAAV0@ABV0@@Z @31
	??4RKC_RPGSCRN_OBJECTBLOCK@@QAEAAV0@ABV0@@Z=o_RKC_RPGSCRN.??4RKC_RPGSCRN_OBJECTBLOCK@@QAEAAV0@ABV0@@Z @32
	??4RKC_RPGSCRN_OBJECTDISP@@QAEAAV0@ABV0@@Z=o_RKC_RPGSCRN.??4RKC_RPGSCRN_OBJECTDISP@@QAEAAV0@ABV0@@Z @33
	??4RKC_RPGSCRN_OBJECTDISPCELL@@QAEAAV0@ABV0@@Z=o_RKC_RPGSCRN.??4RKC_RPGSCRN_OBJECTDISPCELL@@QAEAAV0@ABV0@@Z @34
	?CalcAreaJudgeFromMap@RKC_RPGSCRN_GROUNDBLOCK@@QAEXPAJ000@Z=o_RKC_RPGSCRN.?CalcAreaJudgeFromMap@RKC_RPGSCRN_GROUNDBLOCK@@QAEXPAJ000@Z @35
	?CalcGroundPos@RKC_RPGSCRN_GROUNDBLOCK@@QAEXJJPAJ0@Z=o_RKC_RPGSCRN.?CalcGroundPos@RKC_RPGSCRN_GROUNDBLOCK@@QAEXJJPAJ0@Z @36
	?CalcRealPos@RKC_RPGSCRN@@QAEXJJPAJ0@Z=o_RKC_RPGSCRN.?CalcRealPos@RKC_RPGSCRN@@QAEXJJPAJ0@Z @37
	?CalcRealPos@RKC_RPGSCRN_GROUNDBLOCK@@QAEXJJPAJ0@Z=o_RKC_RPGSCRN.?CalcRealPos@RKC_RPGSCRN_GROUNDBLOCK@@QAEXJJPAJ0@Z @38
	?CalcWorldPos@RKC_RPGSCRN@@QAEXJJPAJ0@Z=o_RKC_RPGSCRN.?CalcWorldPos@RKC_RPGSCRN@@QAEXJJPAJ0@Z @39
	?CheckClip@RKC_RPGSCRN_OBJECT@@QAEHPAURKC_RPGSCRN_RECT@@H@Z=o_RKC_RPGSCRN.?CheckClip@RKC_RPGSCRN_OBJECT@@QAEHPAURKC_RPGSCRN_RECT@@H@Z @40
	?CheckDisplayObject@RKC_RPGSCRN_OBJECT@@QAEHJJH@Z=o_RKC_RPGSCRN.?CheckDisplayObject@RKC_RPGSCRN_OBJECT@@QAEHJJH@Z @41
	?CheckExistStatus@RKC_RPGSCRN_OBJECTDISP@@QAEHF@Z=o_RKC_RPGSCRN.?CheckExistStatus@RKC_RPGSCRN_OBJECTDISP@@QAEHF@Z @42
	?Copy@RKC_RPGSCRN_GROUNDBLOCK@@QAEHPAV1@@Z=o_RKC_RPGSCRN.?Copy@RKC_RPGSCRN_GROUNDBLOCK@@QAEHPAV1@@Z @43
	?Copy@RKC_RPGSCRN_OBJECT@@QAEHPAV1@@Z=o_RKC_RPGSCRN.?Copy@RKC_RPGSCRN_OBJECT@@QAEHPAV1@@Z @44
	?Copy@RKC_RPGSCRN_OBJECTBLOCK@@QAEHPAV1@@Z=o_RKC_RPGSCRN.?Copy@RKC_RPGSCRN_OBJECTBLOCK@@QAEHPAV1@@Z @45
	?Copy@RKC_RPGSCRN_OBJECTDISP@@QAEHPAV1@@Z=o_RKC_RPGSCRN.?Copy@RKC_RPGSCRN_OBJECTDISP@@QAEHPAV1@@Z @46
	?CreateIndex@RKC_RPGSCRN_CHARANIMBLOCK@@QAEHJPAVRKC_RPGSCRN@@@Z=o_RKC_RPGSCRN.?CreateIndex@RKC_RPGSCRN_CHARANIMBLOCK@@QAEHJPAVRKC_RPGSCRN@@@Z @47
	?Delete@RKC_RPGSCRN_OBJECTBLOCK@@QAEHJ@Z=o_RKC_RPGSCRN.?Delete@RKC_RPGSCRN_OBJECTBLOCK@@QAEHJ@Z @48
	?Delete@RKC_RPGSCRN_OBJECTDISP@@QAEHJ@Z=o_RKC_RPGSCRN.?Delete@RKC_RPGSCRN_OBJECTDISP@@QAEHJ@Z @49
	?DeleteGroundBlock@RKC_RPGSCRN@@QAEHJ@Z=o_RKC_RPGSCRN.?DeleteGroundBlock@RKC_RPGSCRN@@QAEHJ@Z @50
	?DeleteObjectBlock@RKC_RPGSCRN@@QAEHJ@Z=o_RKC_RPGSCRN.?DeleteObjectBlock@RKC_RPGSCRN@@QAEHJ@Z @51
	?Get@RKC_RPGSCRN_CHARANIM@@QAEPAVRKC_RPGSCRN_CHARANIMCHART@@J@Z=o_RKC_RPGSCRN.?Get@RKC_RPGSCRN_CHARANIM@@QAEPAVRKC_RPGSCRN_CHARANIMCHART@@J@Z @52
	?Get@RKC_RPGSCRN_CHARANIMBLOCK@@QAEPAVRKC_RPGSCRN_CHARANIM@@J@Z=o_RKC_RPGSCRN.?Get@RKC_RPGSCRN_CHARANIMBLOCK@@QAEPAVRKC_RPGSCRN_CHARANIM@@J@Z @53
	?Get@RKC_RPGSCRN_CHARANIMCELLBLOCK@@QAEPAVRKC_RPGSCRN_CHARANIMCELL@@J@Z=o_RKC_RPGSCRN.?Get@RKC_RPGSCRN_CHARANIMCELLBLOCK@@QAEPAVRKC_RPGSCRN_CHARANIMCELL@@J@Z @54
	?Get@RKC_RPGSCRN_CHARANIMCHART@@QAEPAVRKC_RPGSCRN_CHARANIMCELLBLOCK@@JJ@Z=o_RKC_RPGSCRN.?Get@RKC_RPGSCRN_CHARANIMCHART@@QAEPAVRKC_RPGSCRN_CHARANIMCELLBLOCK@@JJ@Z @55
	?Get@RKC_RPGSCRN_GROUNDBLOCK@@QAEHJJPAF00@Z=o_RKC_RPGSCRN.?Get@RKC_RPGSCRN_GROUNDBLOCK@@QAEHJJPAF00@Z @56
	?Get@RKC_RPGSCRN_OBJECTBLOCK@@QAEPAVRKC_RPGSCRN_OBJECT@@J@Z=o_RKC_RPGSCRN.?Get@RKC_RPGSCRN_OBJECTBLOCK@@QAEPAVRKC_RPGSCRN_OBJECT@@J@Z @57
	?Get@RKC_RPGSCRN_OBJECTDISP@@QAEPAVRKC_RPGSCRN_OBJECTDISPCELL@@J@Z=o_RKC_RPGSCRN.?Get@RKC_RPGSCRN_OBJECTDISP@@QAEPAVRKC_RPGSCRN_OBJECTDISPCELL@@J@Z @58
	?Get@RKC_RPGSCRN_OBJECTDISPCELL@@QAEPAVRKC_RPGSCRN_OBJECT@@XZ=o_RKC_RPGSCRN.?Get@RKC_RPGSCRN_OBJECTDISPCELL@@QAEPAVRKC_RPGSCRN_OBJECT@@XZ @59
	?GetArea@RKC_RPGSCRN_GROUNDBLOCK@@QAEPAPAURKC_RPGSCRN_GROUNDCELL@@XZ=o_RKC_RPGSCRN.?GetArea@RKC_RPGSCRN_GROUNDBLOCK@@QAEPAPAURKC_RPGSCRN_GROUNDCELL@@XZ @60
	?GetAreaJudge@RKC_RPGSCRN_GROUNDBLOCK@@QAEPAPAFXZ=o_RKC_RPGSCRN.?GetAreaJudge@RKC_RPGSCRN_GROUNDBLOCK@@QAEPAPAFXZ @61
	?GetAreaJudgeSize@RKC_RPGSCRN_GROUNDBLOCK@@QAEXPAJ0@Z=o_RKC_RPGSCRN.?GetAreaJudgeSize@RKC_RPGSCRN_GROUNDBLOCK@@QAEXPAJ0@Z @62
	?GetAreaSize@RKC_RPGSCRN_GROUNDBLOCK@@QAEXPAJ0@Z=o_RKC_RPGSCRN.?GetAreaSize@RKC_RPGSCRN_GROUNDBLOCK@@QAEXPAJ0@Z @63
	?GetBStrong@RKC_RPGSCRN_OBJECT@@QAEFXZ=o_RKC_RPGSCRN.?GetBStrong@RKC_RPGSCRN_OBJECT@@QAEFXZ @64
	?GetBaseMag@RKC_RPGSCRN_GROUNDBLOCK@@QAEXPAJ0@Z=o_RKC_RPGSCRN.?GetBaseMag@RKC_RPGSCRN_GROUNDBLOCK@@QAEXPAJ0@Z @65
	?GetBaseParam@RKC_RPGSCRN@@QAEXPAJ00@Z=o_RKC_RPGSCRN.?GetBaseParam@RKC_RPGSCRN@@QAEXPAJ00@Z @66
	?GetBaseParam@RKC_RPGSCRN_GROUNDBLOCK@@QAEXPAJ0@Z=o_RKC_RPGSCRN.?GetBaseParam@RKC_RPGSCRN_GROUNDBLOCK@@QAEXPAJ0@Z @67
	?GetCharAnimBlock@RKC_RPGSCRN@@QAEPAVRKC_RPGSCRN_CHARANIMBLOCK@@XZ=o_RKC_RPGSCRN.?GetCharAnimBlock@RKC_RPGSCRN@@QAEPAVRKC_RPGSCRN_CHARANIMBLOCK@@XZ @68
	?GetCharacterNo@RKC_RPGSCRN_OBJECT@@QAEJXZ=o_RKC_RPGSCRN.?GetCharacterNo@RKC_RPGSCRN_OBJECT@@QAEJXZ @69
	?GetChipHeight@RKC_RPGSCRN_GROUNDBLOCK@@QAEJXZ=o_RKC_RPGSCRN.?GetChipHeight@RKC_RPGSCRN_GROUNDBLOCK@@QAEJXZ @70
	?GetChipWidth@RKC_RPGSCRN_GROUNDBLOCK@@QAEJXZ=o_RKC_RPGSCRN.?GetChipWidth@RKC_RPGSCRN_GROUNDBLOCK@@QAEJXZ @71
	?GetCount@RKC_RPGSCRN_CHARANIM@@QAEJXZ=o_RKC_RPGSCRN.?GetCount@RKC_RPGSCRN_CHARANIM@@QAEJXZ @72
	?GetCount@RKC_RPGSCRN_CHARANIMBLOCK@@QAEJXZ=o_RKC_RPGSCRN.?GetCount@RKC_RPGSCRN_CHARANIMBLOCK@@QAEJXZ @73
	?GetCount@RKC_RPGSCRN_CHARANIMCELLBLOCK@@QAEJXZ=o_RKC_RPGSCRN.?GetCount@RKC_RPGSCRN_CHARANIMCELLBLOCK@@QAEJXZ @74
	?GetCount@RKC_RPGSCRN_CHARANIMCHART@@QAEJJ@Z=o_RKC_RPGSCRN.?GetCount@RKC_RPGSCRN_CHARANIMCHART@@QAEJJ@Z @75
	?GetCount@RKC_RPGSCRN_OBJECTBLOCK@@QAEJXZ=o_RKC_RPGSCRN.?GetCount@RKC_RPGSCRN_OBJECTBLOCK@@QAEJXZ @76
	?GetCount@RKC_RPGSCRN_OBJECTDISP@@QAEJXZ=o_RKC_RPGSCRN.?GetCount@RKC_RPGSCRN_OBJECTDISP@@QAEJXZ @77
	?GetFromCharacterNo@RKC_RPGSCRN_OBJECTBLOCK@@QAEPAVRKC_RPGSCRN_OBJECT@@J@Z=o_RKC_RPGSCRN.?GetFromCharacterNo@RKC_RPGSCRN_OBJECTBLOCK@@QAEPAVRKC_RPGSCRN_OBJECT@@J@Z @78
	?GetGStrong@RKC_RPGSCRN_OBJECT@@QAEFXZ=o_RKC_RPGSCRN.?GetGStrong@RKC_RPGSCRN_OBJECT@@QAEFXZ @79
	?GetGroundBlock@RKC_RPGSCRN@@QAEPAVRKC_RPGSCRN_GROUNDBLOCK@@J@Z=o_RKC_RPGSCRN.?GetGroundBlock@RKC_RPGSCRN@@QAEPAVRKC_RPGSCRN_GROUNDBLOCK@@J@Z @80
	?GetGroundBlockCount@RKC_RPGSCRN@@QAEJXZ=o_RKC_RPGSCRN.?GetGroundBlockCount@RKC_RPGSCRN@@QAEJXZ @81
	?GetGroundBlockNo@RKC_RPGSCRN@@QAEJPAVRKC_RPGSCRN_GROUNDBLOCK@@@Z=o_RKC_RPGSCRN.?GetGroundBlockNo@RKC_RPGSCRN@@QAEJPAVRKC_RPGSCRN_GROUNDBLOCK@@@Z @82
	?GetGroundRect@RKC_RPGSCRN_GROUNDBLOCK@@QAEHPAUtagRECT@@PAURKC_RPGSCRN_RECT@@HH@Z=o_RKC_RPGSCRN.?GetGroundRect@RKC_RPGSCRN_GROUNDBLOCK@@QAEHPAUtagRECT@@PAURKC_RPGSCRN_RECT@@HH@Z @83
	?GetHeight@RKC_RPGSCRN_OBJECT@@QAEFXZ=o_RKC_RPGSCRN.?GetHeight@RKC_RPGSCRN_OBJECT@@QAEFXZ @84
	?GetHostScreen@RKC_RPGSCRN_OBJECTDISP@@QAEPAVRKC_RPGSCRN@@XZ=o_RKC_RPGSCRN.?GetHostScreen@RKC_RPGSCRN_OBJECTDISP@@QAEPAVRKC_RPGSCRN@@XZ @85
	?GetJudge@RKC_RPGSCRN_GROUNDBLOCK@@QAEHJJPAF@Z=o_RKC_RPGSCRN.?GetJudge@RKC_RPGSCRN_GROUNDBLOCK@@QAEHJJPAF@Z @86
	?GetJudgeOffset@RKC_RPGSCRN_GROUNDBLOCK@@QAEXPAJ0@Z=o_RKC_RPGSCRN.?GetJudgeOffset@RKC_RPGSCRN_GROUNDBLOCK@@QAEXPAJ0@Z @87
	?GetJudgement@RKC_RPGSCRN_OBJECT@@QAEHPAURKC_RPGSCRN_RECT@@@Z=o_RKC_RPGSCRN.?GetJudgement@RKC_RPGSCRN_OBJECT@@QAEHPAURKC_RPGSCRN_RECT@@@Z @88
	?GetJudgementAddr@RKC_RPGSCRN_OBJECT@@QAEPAURKC_RPGSCRN_RECT@@XZ=o_RKC_RPGSCRN.?GetJudgementAddr@RKC_RPGSCRN_OBJECT@@QAEPAURKC_RPGSCRN_RECT@@XZ @89
	?GetMaxFrameCount@RKC_RPGSCRN_CHARANIMCHART@@QAEFJ@Z=o_RKC_RPGSCRN.?GetMaxFrameCount@RKC_RPGSCRN_CHARANIMCHART@@QAEFJ@Z @90
	?GetMaxPartsCount@RKC_RPGSCRN_CHARANIM@@QAEJXZ=o_RKC_RPGSCRN.?GetMaxPartsCount@RKC_RPGSCRN_CHARANIM@@QAEJXZ @91
	?GetMaxPartsCountFromFile@RKC_RPGSCRN_CHARANIMBLOCK@@QAEJPAD@Z=o_RKC_RPGSCRN.?GetMaxPartsCountFromFile@RKC_RPGSCRN_CHARANIMBLOCK@@QAEJPAD@Z @92
	?GetNo@RKC_RPGSCRN_OBJECTBLOCK@@QAEJPAVRKC_RPGSCRN_OBJECT@@@Z=o_RKC_RPGSCRN.?GetNo@RKC_RPGSCRN_OBJECTBLOCK@@QAEJPAVRKC_RPGSCRN_OBJECT@@@Z @93
	?GetNo@RKC_RPGSCRN_OBJECTDISP@@QAEJPAVRKC_RPGSCRN_OBJECT@@@Z=o_RKC_RPGSCRN.?GetNo@RKC_RPGSCRN_OBJECTDISP@@QAEJPAVRKC_RPGSCRN_OBJECT@@@Z @94
	?GetNo@RKC_RPGSCRN_OBJECTDISP@@QAEJPAVRKC_RPGSCRN_OBJECTDISPCELL@@@Z=o_RKC_RPGSCRN.?GetNo@RKC_RPGSCRN_OBJECTDISP@@QAEJPAVRKC_RPGSCRN_OBJECTDISPCELL@@@Z @95
	?GetObjectBlock@RKC_RPGSCRN@@QAEPAVRKC_RPGSCRN_OBJECTBLOCK@@J@Z=o_RKC_RPGSCRN.?GetObjectBlock@RKC_RPGSCRN@@QAEPAVRKC_RPGSCRN_OBJECTBLOCK@@J@Z @96
	?GetObjectBlockCount@RKC_RPGSCRN@@QAEJXZ=o_RKC_RPGSCRN.?GetObjectBlockCount@RKC_RPGSCRN@@QAEJXZ @97
	?GetObjectBlockNo@RKC_RPGSCRN@@QAEJPAVRKC_RPGSCRN_OBJECTBLOCK@@@Z=o_RKC_RPGSCRN.?GetObjectBlockNo@RKC_RPGSCRN@@QAEJPAVRKC_RPGSCRN_OBJECTBLOCK@@@Z @98
	?GetPaletteNo@RKC_RPGSCRN_OBJECT@@QAEFXZ=o_RKC_RPGSCRN.?GetPaletteNo@RKC_RPGSCRN_OBJECT@@QAEFXZ @99
	?GetParam@RKC_RPGSCRN_OBJECT@@QAEXPAFPAJ011000PAURKC_RPGSCRN_RECT@@PAPAVRKC_RPGSCRN@@0001@Z=o_RKC_RPGSCRN.?GetParam@RKC_RPGSCRN_OBJECT@@QAEXPAFPAJ011000PAURKC_RPGSCRN_RECT@@PAPAVRKC_RPGSCRN@@0001@Z @100
	?GetPatternNo@RKC_RPGSCRN_CHARANIMCELL@@QAEJXZ=o_RKC_RPGSCRN.?GetPatternNo@RKC_RPGSCRN_CHARANIMCELL@@QAEJXZ @101
	?GetPatternNo@RKC_RPGSCRN_OBJECT@@QAEJXZ=o_RKC_RPGSCRN.?GetPatternNo@RKC_RPGSCRN_OBJECT@@QAEJXZ @102
	?GetPosition@RKC_RPGSCRN_OBJECT@@QAEHPAURKC_RPGSCRN_POSITION@@@Z=o_RKC_RPGSCRN.?GetPosition@RKC_RPGSCRN_OBJECT@@QAEHPAURKC_RPGSCRN_POSITION@@@Z @103
	?GetPositionAddr@RKC_RPGSCRN_OBJECT@@QAEPAURKC_RPGSCRN_POSITION@@XZ=o_RKC_RPGSCRN.?GetPositionAddr@RKC_RPGSCRN_OBJECT@@QAEPAURKC_RPGSCRN_POSITION@@XZ @104
	?GetPriority@RKC_RPGSCRN_CHARANIMCELL@@QAEFXZ=o_RKC_RPGSCRN.?GetPriority@RKC_RPGSCRN_CHARANIMCELL@@QAEFXZ @105
	?GetRStrong@RKC_RPGSCRN_OBJECT@@QAEFXZ=o_RKC_RPGSCRN.?GetRStrong@RKC_RPGSCRN_OBJECT@@QAEFXZ @106
	?GetShadowTransFlag@RKC_RPGSCRN@@QAEHXZ=o_RKC_RPGSCRN.?GetShadowTransFlag@RKC_RPGSCRN@@QAEHXZ @107
	?GetStatus@RKC_RPGSCRN_CHARANIMCELL@@QAEFXZ=o_RKC_RPGSCRN.?GetStatus@RKC_RPGSCRN_CHARANIMCELL@@QAEFXZ @108
	?GetStatus@RKC_RPGSCRN_CHARANIMCHART@@QAEFXZ=o_RKC_RPGSCRN.?GetStatus@RKC_RPGSCRN_CHARANIMCHART@@QAEFXZ @109
	?GetStatus@RKC_RPGSCRN_OBJECT@@QAEFXZ=o_RKC_RPGSCRN.?GetStatus@RKC_RPGSCRN_OBJECT@@QAEFXZ @110
	?GetStatus@RKC_RPGSCRN_OBJECTDISPCELL@@QAEFXZ=o_RKC_RPGSCRN.?GetStatus@RKC_RPGSCRN_OBJECTDISPCELL@@QAEFXZ @111
	?GetTrans@RKC_RPGSCRN_CHARANIMCELL@@QAEFXZ=o_RKC_RPGSCRN.?GetTrans@RKC_RPGSCRN_CHARANIMCELL@@QAEFXZ @112
	?GetTrans@RKC_RPGSCRN_OBJECT@@QAEFXZ=o_RKC_RPGSCRN.?GetTrans@RKC_RPGSCRN_OBJECT@@QAEFXZ @113
	?GetTrans@RKC_RPGSCRN_OBJECTDISPCELL@@QAEFXZ=o_RKC_RPGSCRN.?GetTrans@RKC_RPGSCRN_OBJECTDISPCELL@@QAEFXZ @114
	?GetUpdNo@RKC_RPGSCRN_OBJECT@@QAEFXZ=o_RKC_RPGSCRN.?GetUpdNo@RKC_RPGSCRN_OBJECT@@QAEFXZ @115
	?GetX@RKC_RPGSCRN_OBJECT@@QAEJXZ=o_RKC_RPGSCRN.?GetX@RKC_RPGSCRN_OBJECT@@QAEJXZ @116
	?GetY@RKC_RPGSCRN_OBJECT@@QAEJXZ=o_RKC_RPGSCRN.?GetY@RKC_RPGSCRN_OBJECT@@QAEJXZ @117
	?Insert@RKC_RPGSCRN_OBJECTBLOCK@@QAEPAVRKC_RPGSCRN_OBJECT@@J@Z=o_RKC_RPGSCRN.?Insert@RKC_RPGSCRN_OBJECTBLOCK@@QAEPAVRKC_RPGSCRN_OBJECT@@J@Z @118
	?Insert@RKC_RPGSCRN_OBJECTDISP@@QAEPAVRKC_RPGSCRN_OBJECTDISPCELL@@J@Z=o_RKC_RPGSCRN.?Insert@RKC_RPGSCRN_OBJECTDISP@@QAEPAVRKC_RPGSCRN_OBJECTDISPCELL@@J@Z @119
	?InsertGroundBlock@RKC_RPGSCRN@@QAEPAVRKC_RPGSCRN_GROUNDBLOCK@@J@Z=o_RKC_RPGSCRN.?InsertGroundBlock@RKC_RPGSCRN@@QAEPAVRKC_RPGSCRN_GROUNDBLOCK@@J@Z @120
	?InsertObjectBlock@RKC_RPGSCRN@@QAEPAVRKC_RPGSCRN_OBJECTBLOCK@@J@Z=o_RKC_RPGSCRN.?InsertObjectBlock@RKC_RPGSCRN@@QAEPAVRKC_RPGSCRN_OBJECTBLOCK@@J@Z @121
	?InsertSort@RKC_RPGSCRN_OBJECTDISP@@QAEPAVRKC_RPGSCRN_OBJECTDISPCELL@@PAURKC_RPGSCRN_POSITION@@PAURKC_RPGSCRN_RECT@@FF@Z=o_RKC_RPGSCRN.?InsertSort@RKC_RPGSCRN_OBJECTDISP@@QAEPAVRKC_RPGSCRN_OBJECTDISPCELL@@PAURKC_RPGSCRN_POSITION@@PAURKC_RPGSCRN_RECT@@FF@Z @122
	?InsertSortObjectNo@RKC_RPGSCRN_OBJECTDISP@@QAEPAVRKC_RPGSCRN_OBJECTDISPCELL@@PAVRKC_RPGSCRN_OBJECT@@PAVRKC_RPGSCRN_OBJECTBLOCK@@@Z=o_RKC_RPGSCRN.?InsertSortObjectNo@RKC_RPGSCRN_OBJECTDISP@@QAEPAVRKC_RPGSCRN_OBJECTDISPCELL@@PAVRKC_RPGSCRN_OBJECT@@PAVRKC_RPGSCRN_OBJECTBLOCK@@@Z @123
	?ReadCafFile@RKC_RPGSCRN_CHARANIM@@QAEHPADJ@Z=o_RKC_RPGSCRN.?ReadCafFile@RKC_RPGSCRN_CHARANIM@@QAEHPADJ@Z @124
	?ReadFile@RKC_RPGSCRN_GROUNDBLOCK@@QAEHPADJ@Z=o_RKC_RPGSCRN.?ReadFile@RKC_RPGSCRN_GROUNDBLOCK@@QAEHPADJ@Z @125
	?ReadFile@RKC_RPGSCRN_OBJECTBLOCK@@QAEHPADPAVRKC_RPGSCRN_OBJECTDISP@@HJ@Z=o_RKC_RPGSCRN.?ReadFile@RKC_RPGSCRN_OBJECTBLOCK@@QAEHPADPAVRKC_RPGSCRN_OBJECTDISP@@HJ@Z @126
	?ReadMapFile@RKC_RPGSCRN@@QAEHPADJJJHG@Z=o_RKC_RPGSCRN.?ReadMapFile@RKC_RPGSCRN@@QAEHPADJJJHG@Z @127
	?ReadUpdList@RKC_RPGSCRN@@QAEHPAD0JH@Z=o_RKC_RPGSCRN.?ReadUpdList@RKC_RPGSCRN@@QAEHPAD0JH@Z @128
	?Release@RKC_RPGSCRN@@QAEXXZ=o_RKC_RPGSCRN.?Release@RKC_RPGSCRN@@QAEXXZ @129
	?Release@RKC_RPGSCRN_CHARANIM@@QAEXXZ=o_RKC_RPGSCRN.?Release@RKC_RPGSCRN_CHARANIM@@QAEXXZ @130
	?Release@RKC_RPGSCRN_CHARANIMBLOCK@@QAEXJ@Z=o_RKC_RPGSCRN.?Release@RKC_RPGSCRN_CHARANIMBLOCK@@QAEXJ@Z @131
	?Release@RKC_RPGSCRN_CHARANIMCELLBLOCK@@QAEXXZ=o_RKC_RPGSCRN.?Release@RKC_RPGSCRN_CHARANIMCELLBLOCK@@QAEXXZ @132
	?Release@RKC_RPGSCRN_CHARANIMCHART@@QAEXXZ=o_RKC_RPGSCRN.?Release@RKC_RPGSCRN_CHARANIMCHART@@QAEXXZ @133
	?Release@RKC_RPGSCRN_GROUNDBLOCK@@QAEXXZ=o_RKC_RPGSCRN.?Release@RKC_RPGSCRN_GROUNDBLOCK@@QAEXXZ @134
	?Release@RKC_RPGSCRN_OBJECT@@QAEXXZ=o_RKC_RPGSCRN.?Release@RKC_RPGSCRN_OBJECT@@QAEXXZ @135
	?Release@RKC_RPGSCRN_OBJECTBLOCK@@QAEXXZ=o_RKC_RPGSCRN.?Release@RKC_RPGSCRN_OBJECTBLOCK@@QAEXXZ @136
	?Release@RKC_RPGSCRN_OBJECTDISP@@QAEXXZ=o_RKC_RPGSCRN.?Release@RKC_RPGSCRN_OBJECTDISP@@QAEXXZ @137
	?ReleaseJudge@RKC_RPGSCRN_GROUNDBLOCK@@QAEXXZ=o_RKC_RPGSCRN.?ReleaseJudge@RKC_RPGSCRN_GROUNDBLOCK@@QAEXXZ @138
	?ReleaseMap@RKC_RPGSCRN_GROUNDBLOCK@@QAEXXZ=o_RKC_RPGSCRN.?ReleaseMap@RKC_RPGSCRN_GROUNDBLOCK@@QAEXXZ @139
	?Set@RKC_RPGSCRN_GROUNDBLOCK@@QAEHJJFFF@Z=o_RKC_RPGSCRN.?Set@RKC_RPGSCRN_GROUNDBLOCK@@QAEHJJFFF@Z @140
	?Set@RKC_RPGSCRN_OBJECTDISPCELL@@QAEXPAVRKC_RPGSCRN_OBJECT@@@Z=o_RKC_RPGSCRN.?Set@RKC_RPGSCRN_OBJECTDISPCELL@@QAEXPAVRKC_RPGSCRN_OBJECT@@@Z @141
	?SetAreaJudgeSize@RKC_RPGSCRN_GROUNDBLOCK@@QAEXJJJJ@Z=o_RKC_RPGSCRN.?SetAreaJudgeSize@RKC_RPGSCRN_GROUNDBLOCK@@QAEXJJJJ@Z @142
	?SetAreaSize@RKC_RPGSCRN_GROUNDBLOCK@@QAEXJJ@Z=o_RKC_RPGSCRN.?SetAreaSize@RKC_RPGSCRN_GROUNDBLOCK@@QAEXJJ@Z @143
	?SetBStrong@RKC_RPGSCRN_OBJECT@@QAEXF@Z=o_RKC_RPGSCRN.?SetBStrong@RKC_RPGSCRN_OBJECT@@QAEXF@Z @144
	?SetBaseMag@RKC_RPGSCRN_GROUNDBLOCK@@QAEXJJ@Z=o_RKC_RPGSCRN.?SetBaseMag@RKC_RPGSCRN_GROUNDBLOCK@@QAEXJJ@Z @145
	?SetBaseParam@RKC_RPGSCRN@@QAEXJJJ@Z=o_RKC_RPGSCRN.?SetBaseParam@RKC_RPGSCRN@@QAEXJJJ@Z @146
	?SetCharacterNo@RKC_RPGSCRN_OBJECT@@QAEXJ@Z=o_RKC_RPGSCRN.?SetCharacterNo@RKC_RPGSCRN_OBJECT@@QAEXJ@Z @147
	?SetChipHeight@RKC_RPGSCRN_GROUNDBLOCK@@QAEXJ@Z=o_RKC_RPGSCRN.?SetChipHeight@RKC_RPGSCRN_GROUNDBLOCK@@QAEXJ@Z @148
	?SetChipWidth@RKC_RPGSCRN_GROUNDBLOCK@@QAEXJ@Z=o_RKC_RPGSCRN.?SetChipWidth@RKC_RPGSCRN_GROUNDBLOCK@@QAEXJ@Z @149
	?SetDisplayObject@RKC_RPGSCRN_OBJECTBLOCK@@QAEHPAVRKC_RPGSCRN_OBJECTDISP@@JJJJHHH@Z=o_RKC_RPGSCRN.?SetDisplayObject@RKC_RPGSCRN_OBJECTBLOCK@@QAEHPAVRKC_RPGSCRN_OBJECTDISP@@JJJJHHH@Z @150
	?SetDisplayObject@RKC_RPGSCRN_OBJECTBLOCK@@QAEHPAVRKC_RPGSCRN_OBJECTDISP@@PAUtagRECT@@H@Z=o_RKC_RPGSCRN.?SetDisplayObject@RKC_RPGSCRN_OBJECTBLOCK@@QAEHPAVRKC_RPGSCRN_OBJECTDISP@@PAUtagRECT@@H@Z @151
	?SetGStrong@RKC_RPGSCRN_OBJECT@@QAEXF@Z=o_RKC_RPGSCRN.?SetGStrong@RKC_RPGSCRN_OBJECT@@QAEXF@Z @152
	?SetHeight@RKC_RPGSCRN_OBJECT@@QAEXF@Z=o_RKC_RPGSCRN.?SetHeight@RKC_RPGSCRN_OBJECT@@QAEXF@Z @153
	?SetHostScreen@RKC_RPGSCRN_OBJECTDISP@@QAEXPAVRKC_RPGSCRN@@@Z=o_RKC_RPGSCRN.?SetHostScreen@RKC_RPGSCRN_OBJECTDISP@@QAEXPAVRKC_RPGSCRN@@@Z @154
	?SetJudge@RKC_RPGSCRN_GROUNDBLOCK@@QAEHJJF@Z=o_RKC_RPGSCRN.?SetJudge@RKC_RPGSCRN_GROUNDBLOCK@@QAEHJJF@Z @155
	?SetJudgeOffset@RKC_RPGSCRN_GROUNDBLOCK@@QAEXJJ@Z=o_RKC_RPGSCRN.?SetJudgeOffset@RKC_RPGSCRN_GROUNDBLOCK@@QAEXJJ@Z @156
	?SetJudgement@RKC_RPGSCRN_OBJECT@@QAEHPAURKC_RPGSCRN_RECT@@@Z=o_RKC_RPGSCRN.?SetJudgement@RKC_RPGSCRN_OBJECT@@QAEHPAURKC_RPGSCRN_RECT@@@Z @157
	?SetJudgementObject@RKC_RPGSCRN_OBJECTBLOCK@@QAEHPAVRKC_RPGSCRN_OBJECTDISP@@PAUtagRECT@@HHHH@Z=o_RKC_RPGSCRN.?SetJudgementObject@RKC_RPGSCRN_OBJECTBLOCK@@QAEHPAVRKC_RPGSCRN_OBJECTDISP@@PAUtagRECT@@HHHH@Z @158
	?SetMaxFrameCount@RKC_RPGSCRN_CHARANIMCHART@@QAEXJF@Z=o_RKC_RPGSCRN.?SetMaxFrameCount@RKC_RPGSCRN_CHARANIMCHART@@QAEXJF@Z @159
	?SetObject@RKC_RPGSCRN_CHARANIMBLOCK@@QAEPAVRKC_RPGSCRN_OBJECT@@JJJJJJFPAVRKC_RPGSCRN_OBJECTBLOCK@@PAURKC_RPGSCRN_RECT@@PAHPAF33JJJ1JJJ@Z=o_RKC_RPGSCRN.?SetObject@RKC_RPGSCRN_CHARANIMBLOCK@@QAEPAVRKC_RPGSCRN_OBJECT@@JJJJJJFPAVRKC_RPGSCRN_OBJECTBLOCK@@PAURKC_RPGSCRN_RECT@@PAHPAF33JJJ1JJJ@Z @160
	?SetPacket@RKC_RPGSCRN_CHARANIMBLOCK@@QAEXJJJJJJJJPAHPAF11JJ@Z=o_RKC_RPGSCRN.?SetPacket@RKC_RPGSCRN_CHARANIMBLOCK@@QAEXJJJJJJJJPAHPAF11JJ@Z @161
	?SetPacket@RKC_RPGSCRN_GROUNDBLOCK@@QAEHJJPAUtagRECT@@JJ0@Z=o_RKC_RPGSCRN.?SetPacket@RKC_RPGSCRN_GROUNDBLOCK@@QAEHJJPAUtagRECT@@JJ0@Z @162
	?SetPacket@RKC_RPGSCRN_OBJECT@@QAEHJJJJHFPAURKC_RPGSCRN_POSITION@@@Z=o_RKC_RPGSCRN.?SetPacket@RKC_RPGSCRN_OBJECT@@QAEHJJJJHFPAURKC_RPGSCRN_POSITION@@@Z @163
	?SetPacket@RKC_RPGSCRN_OBJECTDISP@@QAEHJJJJHG@Z=o_RKC_RPGSCRN.?SetPacket@RKC_RPGSCRN_OBJECTDISP@@QAEHJJJJHG@Z @164
	?SetPaletteNo@RKC_RPGSCRN_OBJECT@@QAEXF@Z=o_RKC_RPGSCRN.?SetPaletteNo@RKC_RPGSCRN_OBJECT@@QAEXF@Z @165
	?SetParam@RKC_RPGSCRN_OBJECT@@QAEXFJFJJFFFPAURKC_RPGSCRN_RECT@@PAVRKC_RPGSCRN@@FFFJ@Z=o_RKC_RPGSCRN.?SetParam@RKC_RPGSCRN_OBJECT@@QAEXFJFJJFFFPAURKC_RPGSCRN_RECT@@PAVRKC_RPGSCRN@@FFFJ@Z @166
	?SetPatternNo@RKC_RPGSCRN_CHARANIMCELL@@QAEXJ@Z=o_RKC_RPGSCRN.?SetPatternNo@RKC_RPGSCRN_CHARANIMCELL@@QAEXJ@Z @167
	?SetPatternNo@RKC_RPGSCRN_OBJECT@@QAEXJ@Z=o_RKC_RPGSCRN.?SetPatternNo@RKC_RPGSCRN_OBJECT@@QAEXJ@Z @168
	?SetPosition@RKC_RPGSCRN_OBJECT@@QAEHPAURKC_RPGSCRN_POSITION@@@Z=o_RKC_RPGSCRN.?SetPosition@RKC_RPGSCRN_OBJECT@@QAEHPAURKC_RPGSCRN_POSITION@@@Z @169
	?SetPriority@RKC_RPGSCRN_CHARANIMCELL@@QAEXF@Z=o_RKC_RPGSCRN.?SetPriority@RKC_RPGSCRN_CHARANIMCELL@@QAEXF@Z @170
	?SetRStrong@RKC_RPGSCRN_OBJECT@@QAEXF@Z=o_RKC_RPGSCRN.?SetRStrong@RKC_RPGSCRN_OBJECT@@QAEXF@Z @171
	?SetShadowObject@RKC_RPGSCRN_OBJECTBLOCK@@QAEHPAVRKC_RPGSCRN_OBJECTDISP@@PAUtagRECT@@H@Z=o_RKC_RPGSCRN.?SetShadowObject@RKC_RPGSCRN_OBJECTBLOCK@@QAEHPAVRKC_RPGSCRN_OBJECTDISP@@PAUtagRECT@@H@Z @172
	?SetShadowTransFlag@RKC_RPGSCRN@@QAEXH@Z=o_RKC_RPGSCRN.?SetShadowTransFlag@RKC_RPGSCRN@@QAEXH@Z @173
	?SetStatus@RKC_RPGSCRN_CHARANIMCELL@@QAEXF@Z=o_RKC_RPGSCRN.?SetStatus@RKC_RPGSCRN_CHARANIMCELL@@QAEXF@Z @174
	?SetStatus@RKC_RPGSCRN_CHARANIMCHART@@QAEXF@Z=o_RKC_RPGSCRN.?SetStatus@RKC_RPGSCRN_CHARANIMCHART@@QAEXF@Z @175
	?SetStatus@RKC_RPGSCRN_OBJECT@@QAEXF@Z=o_RKC_RPGSCRN.?SetStatus@RKC_RPGSCRN_OBJECT@@QAEXF@Z @176
	?SetStatus@RKC_RPGSCRN_OBJECTDISPCELL@@QAEXF@Z=o_RKC_RPGSCRN.?SetStatus@RKC_RPGSCRN_OBJECTDISPCELL@@QAEXF@Z @177
	?SetTrans@RKC_RPGSCRN_CHARANIMCELL@@QAEXF@Z=o_RKC_RPGSCRN.?SetTrans@RKC_RPGSCRN_CHARANIMCELL@@QAEXF@Z @178
	?SetTrans@RKC_RPGSCRN_OBJECT@@QAEXF@Z=o_RKC_RPGSCRN.?SetTrans@RKC_RPGSCRN_OBJECT@@QAEXF@Z @179
	?SetTrans@RKC_RPGSCRN_OBJECTDISPCELL@@QAEXF@Z=o_RKC_RPGSCRN.?SetTrans@RKC_RPGSCRN_OBJECTDISPCELL@@QAEXF@Z @180
	?SetUpdNo@RKC_RPGSCRN_OBJECT@@QAEXF@Z=o_RKC_RPGSCRN.?SetUpdNo@RKC_RPGSCRN_OBJECT@@QAEXF@Z @181
	?SetUpdibHost@RKC_RPGSCRN@@QAEHPAVRKC_UPDIB@@@Z=o_RKC_RPGSCRN.?SetUpdibHost@RKC_RPGSCRN@@QAEHPAVRKC_UPDIB@@@Z @182
	?SortDisplayObject@RKC_RPGSCRN_OBJECTDISP@@QAEHXZ=o_RKC_RPGSCRN.?SortDisplayObject@RKC_RPGSCRN_OBJECTDISP@@QAEHXZ @183
	?WriteFile@RKC_RPGSCRN_GROUNDBLOCK@@QAEHPAD@Z=o_RKC_RPGSCRN.?WriteFile@RKC_RPGSCRN_GROUNDBLOCK@@QAEHPAD@Z @184
	?WriteFile@RKC_RPGSCRN_OBJECTBLOCK@@QAEHPAD@Z=o_RKC_RPGSCRN.?WriteFile@RKC_RPGSCRN_OBJECTBLOCK@@QAEHPAD@Z @185
