LIBRARY RKC_UPDIB
EXPORTS
	??0RKC_UPDIB@@QAE@XZ=o_RKC_UPDIB.??0RKC_UPDIB@@QAE@XZ @1
	??0RKC_UPDIB_PATTERN@@QAE@XZ=o_RKC_UPDIB.??0RKC_UPDIB_PATTERN@@QAE@XZ @2
	??0RKC_UPDIB_UPD@@QAE@XZ=o_RKC_UPDIB.??0RKC_UPDIB_UPD@@QAE@XZ @3
	??0RKC_UPDIB_VS@@QAE@XZ=o_RKC_UPDIB.??0RKC_UPDIB_VS@@QAE@XZ @4
	??0RKC_UPDIB_VSBLOCK@@QAE@XZ=o_RKC_UPDIB.??0RKC_UPDIB_VSBLOCK@@QAE@XZ @5
	??0RKC_UPDIB_VSPACKET@@QAE@XZ=o_RKC_UPDIB.??0RKC_UPDIB_VSPACKET@@QAE@XZ @6
	??1RKC_UPDIB@@QAE@XZ=o_RKC_UPDIB.??1RKC_UPDIB@@QAE@XZ @7
	??1RKC_UPDIB_PATTERN@@QAE@XZ=o_RKC_UPDIB.??1RKC_UPDIB_PATTERN@@QAE@XZ @8
	??1RKC_UPDIB_UPD@@QAE@XZ=o_RKC_UPDIB.??1RKC_UPDIB_UPD@@QAE@XZ @9
	??1RKC_UPDIB_VS@@QAE@XZ=o_RKC_UPDIB.??1RKC_UPDIB_VS@@QAE@XZ @10
	??1RKC_UPDIB_VSBLOCK@@QAE@XZ=o_RKC_UPDIB.??1RKC_UPDIB_VSBLOCK@@QAE@XZ @11
	??1RKC_UPDIB_VSPACKET@@QAE@XZ=o_RKC_UPDIB.??1RKC_UPDIB_VSPACKET@@QAE@XZ @12
	??4RKC_UPDIB@@QAEAAV0@ABV0@@Z=o_RKC_UPDIB.??4RKC_UPDIB@@QAEAAV0@ABV0@@Z @13
	??4RKC_UPDIB_PATTERN@@QAEAAV0@ABV0@@Z=o_RKC_UPDIB.??4RKC_UPDIB_PATTERN@@QAEAAV0@ABV0@@Z @14
	??4RKC_UPDIB_UPD@@QAEAAV0@ABV0@@Z=o_RKC_UPDIB.??4RKC_UPDIB_UPD@@QAEAAV0@ABV0@@Z @15
	??4RKC_UPDIB_VS@@QAEAAV0@ABV0@@Z=o_RKC_UPDIB.??4RKC_UPDIB_VS@@QAEAAV0@ABV0@@Z @16
	??4RKC_UPDIB_VSBLOCK@@QAEAAV0@ABV0@@Z=o_RKC_UPDIB.??4RKC_UPDIB_VSBLOCK@@QAEAAV0@ABV0@@Z @17
	??4RKC_UPDIB_VSPACKET@@QAEAAV0@ABV0@@Z=o_RKC_UPDIB.??4RKC_UPDIB_VSPACKET@@QAEAAV0@ABV0@@Z @18
	?CreateTemporaryDIB@RKC_UPDIB@@QAEXXZ=o_RKC_UPDIB.?CreateTemporaryDIB@RKC_UPDIB@@QAEXXZ @19
	?CreateUpdBlock@RKC_UPDIB@@QAEHJ@Z=o_RKC_UPDIB.?CreateUpdBlock@RKC_UPDIB@@QAEHJ@Z @20
	?CreateVS@RKC_UPDIB_VSBLOCK@@QAEHJ@Z=o_RKC_UPDIB.?CreateVS@RKC_UPDIB_VSBLOCK@@QAEHJ@Z @21
	?DeleteUpd@RKC_UPDIB@@QAEHJH@Z=o_RKC_UPDIB.?DeleteUpd@RKC_UPDIB@@QAEHJH@Z @22
	?DeleteVSBlock@RKC_UPDIB@@QAEHJ@Z=o_RKC_UPDIB.?DeleteVSBlock@RKC_UPDIB@@QAEHJ@Z @23
	?DeleteVSPacket@RKC_UPDIB_VS@@QAEHJ@Z=o_RKC_UPDIB.?DeleteVSPacket@RKC_UPDIB_VS@@QAEHJ@Z @24
	?ExchangeUpd@RKC_UPDIB@@QAEHJJ@Z=o_RKC_UPDIB.?ExchangeUpd@RKC_UPDIB@@QAEHJJ@Z @25
	?FlushVSBlock@RKC_UPDIB@@QAEXJ@Z=o_RKC_UPDIB.?FlushVSBlock@RKC_UPDIB@@QAEXJ@Z @26
	?FlushVSPacket@RKC_UPDIB_VS@@QAEXXZ=o_RKC_UPDIB.?FlushVSPacket@RKC_UPDIB_VS@@QAEXXZ @27
	?FlushVScreen@RKC_UPDIB_VSBLOCK@@QAEXXZ=o_RKC_UPDIB.?FlushVScreen@RKC_UPDIB_VSBLOCK@@QAEXXZ @28
	?GetBuildRect@RKC_UPDIB_PATTERN@@QAEPAUtagRECT@@XZ=o_RKC_UPDIB.?GetBuildRect@RKC_UPDIB_PATTERN@@QAEPAUtagRECT@@XZ @29
	?GetDIBHISpeedMode@RKC_UPDIB@@QAEPAVRKC_DIBHISPEEDMODE@@XZ=o_RKC_UPDIB.?GetDIBHISpeedMode@RKC_UPDIB@@QAEPAVRKC_DIBHISPEEDMODE@@XZ @30
	?GetDefaultPaletteNo@RKC_UPDIB_PATTERN@@QAEJXZ=o_RKC_UPDIB.?GetDefaultPaletteNo@RKC_UPDIB_PATTERN@@QAEJXZ @31
	?GetFilename@RKC_UPDIB_UPD@@QAEPADXZ=o_RKC_UPDIB.?GetFilename@RKC_UPDIB_UPD@@QAEPADXZ @32
	?GetFontParam@RKC_UPDIB@@QAEHJPAJ0@Z=o_RKC_UPDIB.?GetFontParam@RKC_UPDIB@@QAEHJPAJ0@Z @33
	?GetIcon@RKC_UPDIB_PATTERN@@QAEPAVRKC_DIB@@XZ=o_RKC_UPDIB.?GetIcon@RKC_UPDIB_PATTERN@@QAEPAVRKC_DIB@@XZ @34
	?GetJudgement@RKC_UPDIB_PATTERN@@QAEPAURKC_UPDIB_JUDGE@@XZ=o_RKC_UPDIB.?GetJudgement@RKC_UPDIB_PATTERN@@QAEPAURKC_UPDIB_JUDGE@@XZ @35
	?GetName@RKC_UPDIB_PATTERN@@QAEPADXZ=o_RKC_UPDIB.?GetName@RKC_UPDIB_PATTERN@@QAEPADXZ @36
	?GetPalette@RKC_UPDIB_UPD@@QAEPAUtagRGBQUAD@@J@Z=o_RKC_UPDIB.?GetPalette@RKC_UPDIB_UPD@@QAEPAUtagRGBQUAD@@J@Z @37
	?GetPaletteCount@RKC_UPDIB_UPD@@QAEJXZ=o_RKC_UPDIB.?GetPaletteCount@RKC_UPDIB_UPD@@QAEJXZ @38
	?GetPaletteDIB@RKC_UPDIB_UPD@@QAEPAVRKC_DIB@@J@Z=o_RKC_UPDIB.?GetPaletteDIB@RKC_UPDIB_UPD@@QAEPAVRKC_DIB@@J@Z @39
	?GetParts@RKC_UPDIB_UPD@@QAEPAURKC_UPDIB_UPD_PARTS@@J@Z=o_RKC_UPDIB.?GetParts@RKC_UPDIB_UPD@@QAEPAURKC_UPDIB_UPD_PARTS@@J@Z @40
	?GetPartsCount@RKC_UPDIB_UPD@@QAEJXZ=o_RKC_UPDIB.?GetPartsCount@RKC_UPDIB_UPD@@QAEJXZ @41
	?GetPartsList@RKC_UPDIB_PATTERN@@QAEPAURKC_UPDIB_PARTSLIST@@J@Z=o_RKC_UPDIB.?GetPartsList@RKC_UPDIB_PATTERN@@QAEPAURKC_UPDIB_PARTSLIST@@J@Z @42
	?GetPartsListCount@RKC_UPDIB_PATTERN@@QAEJXZ=o_RKC_UPDIB.?GetPartsListCount@RKC_UPDIB_PATTERN@@QAEJXZ @43
	?GetPattern@RKC_UPDIB_UPD@@QAEPAVRKC_UPDIB_PATTERN@@J@Z=o_RKC_UPDIB.?GetPattern@RKC_UPDIB_UPD@@QAEPAVRKC_UPDIB_PATTERN@@J@Z @44
	?GetPatternCount@RKC_UPDIB_UPD@@QAEJXZ=o_RKC_UPDIB.?GetPatternCount@RKC_UPDIB_UPD@@QAEJXZ @45
	?GetStatus@RKC_UPDIB_UPD@@QAEJXZ=o_RKC_UPDIB.?GetStatus@RKC_UPDIB_UPD@@QAEJXZ @46
	?GetType@RKC_UPDIB_UPD@@QAEJXZ=o_RKC_UPDIB.?GetType@RKC_UPDIB_UPD@@QAEJXZ @47
	?GetUpd@RKC_UPDIB@@QAEPAVRKC_UPDIB_UPD@@J@Z=o_RKC_UPDIB.?GetUpd@RKC_UPDIB@@QAEPAVRKC_UPDIB_UPD@@J@Z @48
	?GetUpdCount@RKC_UPDIB@@QAEJXZ=o_RKC_UPDIB.?GetUpdCount@RKC_UPDIB@@QAEJXZ @49
	?GetVSBlock@RKC_UPDIB@@QAEPAVRKC_UPDIB_VSBLOCK@@J@Z=o_RKC_UPDIB.?GetVSBlock@RKC_UPDIB@@QAEPAVRKC_UPDIB_VSBLOCK@@J@Z @50
	?GetVSBlockCount@RKC_UPDIB@@QAEJXZ=o_RKC_UPDIB.?GetVSBlockCount@RKC_UPDIB@@QAEJXZ @51
	?GetVSCount@RKC_UPDIB_VSBLOCK@@QAEJXZ=o_RKC_UPDIB.?GetVSCount@RKC_UPDIB_VSBLOCK@@QAEJXZ @52
	?GetVSPacket@RKC_UPDIB_VS@@QAEPAVRKC_UPDIB_VSPACKET@@J@Z=o_RKC_UPDIB.?GetVSPacket@RKC_UPDIB_VS@@QAEPAVRKC_UPDIB_VSPACKET@@J@Z @53
	?GetVSPacketCount@RKC_UPDIB_VS@@QAEJXZ=o_RKC_UPDIB.?GetVSPacketCount@RKC_UPDIB_VS@@QAEJXZ @54
	?GetVScreen@RKC_UPDIB_VSBLOCK@@QAEPAVRKC_UPDIB_VS@@J@Z=o_RKC_UPDIB.?GetVScreen@RKC_UPDIB_VSBLOCK@@QAEPAVRKC_UPDIB_VS@@J@Z @55
	?GetVersionNo@RKC_UPDIB_UPD@@QAEJXZ=o_RKC_UPDIB.?GetVersionNo@RKC_UPDIB_UPD@@QAEJXZ @56
	?Initialize@RKC_UPDIB@@QAEHJJJH@Z=o_RKC_UPDIB.?Initialize@RKC_UPDIB@@QAEHJJJH@Z @57
	?InsertVSBlock@RKC_UPDIB@@QAEPAVRKC_UPDIB_VSBLOCK@@J@Z=o_RKC_UPDIB.?InsertVSBlock@RKC_UPDIB@@QAEPAVRKC_UPDIB_VSBLOCK@@J@Z @58
	?InsertVSPacket@RKC_UPDIB_VS@@QAEPAVRKC_UPDIB_VSPACKET@@J@Z=o_RKC_UPDIB.?InsertVSPacket@RKC_UPDIB_VS@@QAEPAVRKC_UPDIB_VSPACKET@@J@Z @59
	?Read@RKC_UPDIB_UPD@@QAEHPADJ@Z=o_RKC_UPDIB.?Read@RKC_UPDIB_UPD@@QAEHPADJ@Z @60
	?ReadUpd@RKC_UPDIB@@QAEHJPADJJJH@Z=o_RKC_UPDIB.?ReadUpd@RKC_UPDIB@@QAEHJPADJJJH@Z @61
	?Release@RKC_UPDIB@@QAEXXZ=o_RKC_UPDIB.?Release@RKC_UPDIB@@QAEXXZ @62
	?Release@RKC_UPDIB_PATTERN@@QAEXXZ=o_RKC_UPDIB.?Release@RKC_UPDIB_PATTERN@@QAEXXZ @63
	?Release@RKC_UPDIB_UPD@@QAEXXZ=o_RKC_UPDIB.?Release@RKC_UPDIB_UPD@@QAEXXZ @64
	?Release@RKC_UPDIB_VS@@QAEXXZ=o_RKC_UPDIB.?Release@RKC_UPDIB_VS@@QAEXXZ @65
	?Release@RKC_UPDIB_VSBLOCK@@QAEXXZ=o_RKC_UPDIB.?Release@RKC_UPDIB_VSBLOCK@@QAEXXZ @66
	?Render@RKC_UPDIB@@QAEHPAVRKC_DIB@@JJJJPAUtagRECT@@@Z=o_RKC_UPDIB.?Render@RKC_UPDIB@@QAEHPAVRKC_DIB@@JJJJPAUtagRECT@@@Z @67
	?Render@RKC_UPDIB_VS@@QAEHPAVRKC_DIB@@JJPAUtagRECT@@@Z=o_RKC_UPDIB.?Render@RKC_UPDIB_VS@@QAEHPAVRKC_DIB@@JJPAUtagRECT@@@Z @68
	?Render@RKC_UPDIB_VSBLOCK@@QAEHPAVRKC_DIB@@JJJPAUtagRECT@@@Z=o_RKC_UPDIB.?Render@RKC_UPDIB_VSBLOCK@@QAEHPAVRKC_DIB@@JJJPAUtagRECT@@@Z @69
	?Render@RKC_UPDIB_VSPACKET@@QAEHPAVRKC_DIB@@PAUtagRECT@@@Z=o_RKC_UPDIB.?Render@RKC_UPDIB_VSPACKET@@QAEHPAVRKC_DIB@@PAUtagRECT@@@Z @70
	?RenderBox@RKC_UPDIB_VSPACKET@@QAEHPAVRKC_DIB@@PAUtagRECT@@@Z=o_RKC_UPDIB.?RenderBox@RKC_UPDIB_VSPACKET@@QAEHPAVRKC_DIB@@PAUtagRECT@@@Z @71
	?RenderFill@RKC_UPDIB_VSPACKET@@QAEHPAVRKC_DIB@@PAUtagRECT@@@Z=o_RKC_UPDIB.?RenderFill@RKC_UPDIB_VSPACKET@@QAEHPAVRKC_DIB@@PAUtagRECT@@@Z @72
	?RenderLine@RKC_UPDIB_VSPACKET@@QAEHPAVRKC_DIB@@PAUtagRECT@@@Z=o_RKC_UPDIB.?RenderLine@RKC_UPDIB_VSPACKET@@QAEHPAVRKC_DIB@@PAUtagRECT@@@Z @73
	?RenderPoint@RKC_UPDIB_VSPACKET@@QAEHPAVRKC_DIB@@PAUtagRECT@@@Z=o_RKC_UPDIB.?RenderPoint@RKC_UPDIB_VSPACKET@@QAEHPAVRKC_DIB@@PAUtagRECT@@@Z @74
	?SetPacket@RKC_UPDIB@@QAEHJJJJJJJJJJJJJFFFPAUtagRECT@@PAVRKC_DIB@@@Z=o_RKC_UPDIB.?SetPacket@RKC_UPDIB@@QAEHJJJJJJJJJJJJJFFFPAUtagRECT@@PAVRKC_DIB@@@Z @75
	?SetPacket@RKC_UPDIB_VS@@QAEPAVRKC_UPDIB_VSPACKET@@JJJJJJJJJJJJFFFPAUtagRECT@@PAVRKC_DIB@@@Z=o_RKC_UPDIB.?SetPacket@RKC_UPDIB_VS@@QAEPAVRKC_UPDIB_VSPACKET@@JJJJJJJJJJJJFFFPAUtagRECT@@PAVRKC_DIB@@@Z @76
	?SetPacket@RKC_UPDIB_VS@@QAEPAVRKC_UPDIB_VSPACKET@@JPAV2@@Z=o_RKC_UPDIB.?SetPacket@RKC_UPDIB_VS@@QAEPAVRKC_UPDIB_VSPACKET@@JPAV2@@Z @77
	?SetPacket@RKC_UPDIB_VSPACKET@@QAEPAV1@PAV1@@Z=o_RKC_UPDIB.?SetPacket@RKC_UPDIB_VSPACKET@@QAEPAV1@PAV1@@Z @78
	?SetPacket@RKC_UPDIB_VSPACKET@@QAEPAV1@PAVRKC_UPDIB@@JJJJJJJJJJJFFFPAUtagRECT@@PAVRKC_DIB@@@Z=o_RKC_UPDIB.?SetPacket@RKC_UPDIB_VSPACKET@@QAEPAV1@PAVRKC_UPDIB@@JJJJJJJJJJJFFFPAUtagRECT@@PAVRKC_DIB@@@Z @79
	?SetStatus@RKC_UPDIB_UPD@@QAEXJ@Z=o_RKC_UPDIB.?SetStatus@RKC_UPDIB_UPD@@QAEXJ@Z @80
	?SetStringsPacket@RKC_UPDIB@@QAEHJJJJJPADEEEJJJJJ@Z=o_RKC_UPDIB.?SetStringsPacket@RKC_UPDIB@@QAEHJJJJJPADEEEJJJJJ@Z @81
