LIBRARY RKC_DIB
EXPORTS
	??0RKC_DIB@@QAE@XZ=o_RKC_DIB.??0RKC_DIB@@QAE@XZ @1
	??0RKC_DIBHISPEEDMODE@@QAE@XZ=o_RKC_DIB.??0RKC_DIBHISPEEDMODE@@QAE@XZ @2
	??1RKC_DIB@@QAE@XZ=o_RKC_DIB.??1RKC_DIB@@QAE@XZ @3
	??1RKC_DIBHISPEEDMODE@@QAE@XZ=o_RKC_DIB.??1RKC_DIBHISPEEDMODE@@QAE@XZ @4
	??4RKC_DIB@@QAEAAV0@ABV0@@Z=o_RKC_DIB.??4RKC_DIB@@QAEAAV0@ABV0@@Z @5
	??4RKC_DIBHISPEEDMODE@@QAEAAV0@ABV0@@Z=o_RKC_DIB.??4RKC_DIBHISPEEDMODE@@QAEAAV0@ABV0@@Z @6
	?AddOffset@RKC_DIB@@QAEHUtagRGBQUAD@@H@Z=o_RKC_DIB.?AddOffset@RKC_DIB@@QAEHUtagRGBQUAD@@H@Z @7
	?ClearUnusedArea@RKC_DIB@@QAEHXZ=o_RKC_DIB.?ClearUnusedArea@RKC_DIB@@QAEHXZ @8
	?CompareBitmapColor@RKC_DIB@@QAEHJJPAUtagRGBQUAD@@@Z=o_RKC_DIB.?CompareBitmapColor@RKC_DIB@@QAEHJJPAUtagRGBQUAD@@@Z @9
	?Convert@RKC_DIB@@QAEHPAV1@J@Z=o_RKC_DIB.?Convert@RKC_DIB@@QAEHPAV1@J@Z @10
	?Copy@RKC_DIB@@QAEHPAV1@@Z=o_RKC_DIB.?Copy@RKC_DIB@@QAEHPAV1@@Z @11
	?CopyPalette@RKC_DIB@@QAEHPAV1@@Z=o_RKC_DIB.?CopyPalette@RKC_DIB@@QAEHPAV1@@Z @12
	?Create@RKC_DIB@@QAEHJJJH@Z=o_RKC_DIB.?Create@RKC_DIB@@QAEHJJJH@Z @13
	?DrawBox@RKC_DIB@@QAEHJJJJEEEJJPAUtagRECT@@@Z=o_RKC_DIB.?DrawBox@RKC_DIB@@QAEHJJJJEEEJJPAUtagRECT@@@Z @14
	?DrawFill@RKC_DIB@@QAEHJJJJEEEJJPAUtagRECT@@PAVRKC_DIBHISPEEDMODE@@@Z=o_RKC_DIB.?DrawFill@RKC_DIB@@QAEHJJJJEEEJJPAUtagRECT@@PAVRKC_DIBHISPEEDMODE@@@Z @15
	?DrawLine@RKC_DIB@@QAEHJJJJEEEJJPAUtagRECT@@@Z=o_RKC_DIB.?DrawLine@RKC_DIB@@QAEHJJJJEEEJJPAUtagRECT@@@Z @16
	?DrawPoint@RKC_DIB@@QAEHJJEEEJJPAUtagRECT@@@Z=o_RKC_DIB.?DrawPoint@RKC_DIB@@QAEHJJEEEJJPAUtagRECT@@@Z @17
	?Fill@RKC_DIB@@QAEHJ@Z=o_RKC_DIB.?Fill@RKC_DIB@@QAEHJ@Z @18
	?FillByte@RKC_DIB@@QAEHE@Z=o_RKC_DIB.?FillByte@RKC_DIB@@QAEHE@Z @19
	?GetAlignWidth@RKC_DIB@@QAEJXZ=o_RKC_DIB.?GetAlignWidth@RKC_DIB@@QAEJXZ @20
	?GetBitmap@RKC_DIB@@QAEPAEXZ=o_RKC_DIB.?GetBitmap@RKC_DIB@@QAEPAEXZ @21
	?GetBitmapInfo@RKC_DIB@@QAEPAUtagBITMAPINFOHEADER@@XZ=o_RKC_DIB.?GetBitmapInfo@RKC_DIB@@QAEPAUtagBITMAPINFOHEADER@@XZ @22
	?GetPalette@RKC_DIB@@QAEPAUtagRGBQUAD@@XZ=o_RKC_DIB.?GetPalette@RKC_DIB@@QAEPAUtagRGBQUAD@@XZ @23
	?GetPaletteCount@RKC_DIB@@QAEJXZ=o_RKC_DIB.?GetPaletteCount@RKC_DIB@@QAEJXZ @24
	?GetRect@RKC_DIB@@QAEPAUtagRECT@@PAU2@@Z=o_RKC_DIB.?GetRect@RKC_DIB@@QAEPAUtagRECT@@PAU2@@Z @25
	?PaintArea@RKC_DIB@@QAEHJJPAUtagRGBQUAD@@@Z=o_RKC_DIB.?PaintArea@RKC_DIB@@QAEHJJPAUtagRGBQUAD@@@Z @26
	?ReadFile@RKC_DIB@@QAEHPADF@Z=o_RKC_DIB.?ReadFile@RKC_DIB@@QAEHPADF@Z @27
	?Release@RKC_DIB@@QAEXXZ=o_RKC_DIB.?Release@RKC_DIB@@QAEXXZ @28
	?ScreenPaintLineScan@RKC_DIB@@QAEXPAUtagPOINT@@PAJ1PAUtagRGBQUAD@@2@Z=o_RKC_DIB.?ScreenPaintLineScan@RKC_DIB@@QAEXPAUtagPOINT@@PAJ1PAUtagRGBQUAD@@2@Z @29
	?SetBitmap@RKC_DIB@@QAEPAEPAE@Z=o_RKC_DIB.?SetBitmap@RKC_DIB@@QAEPAEPAE@Z @30
	?SetPalette@RKC_DIB@@QAEHPAUtagRGBQUAD@@@Z=o_RKC_DIB.?SetPalette@RKC_DIB@@QAEHPAUtagRGBQUAD@@@Z @31
	?TransferToDDB@RKC_DIB@@QAEHPAUHDC__@@JJ@Z=o_RKC_DIB.?TransferToDDB@RKC_DIB@@QAEHPAUHDC__@@JJ@Z @32
	?TransferToDDB@RKC_DIB@@QAEHPAUHDC__@@JJJJJ@Z=o_RKC_DIB.?TransferToDDB@RKC_DIB@@QAEHPAUHDC__@@JJJJJ@Z @33
	?TransferToDIB@RKC_DIB@@QAEHJJJJPAV1@JJJ@Z=o_RKC_DIB.?TransferToDIB@RKC_DIB@@QAEHJJJJPAV1@JJJ@Z @34
	?TransferToDIB@RKC_DIB@@QAEHJJPAV1@J@Z=o_RKC_DIB.?TransferToDIB@RKC_DIB@@QAEHJJPAV1@J@Z @35
	?TransferToDIBEx@RKC_DIB@@QAEHJJJJPAV1@JJJJJJPAVRKC_DIBHISPEEDMODE@@@Z=o_RKC_DIB.?TransferToDIBEx@RKC_DIB@@QAEHJJJJPAV1@JJJJJJPAVRKC_DIBHISPEEDMODE@@@Z @36
	?TransferToDIBEx@RKC_DIB@@QAEHJJPAV1@JJJJPAVRKC_DIBHISPEEDMODE@@@Z=o_RKC_DIB.?TransferToDIBEx@RKC_DIB@@QAEHJJPAV1@JJJJPAVRKC_DIBHISPEEDMODE@@@Z @37
	?TransferToDIBFast@RKC_DIB@@QAEHJJJJPAV1@JJ@Z=o_RKC_DIB.?TransferToDIBFast@RKC_DIB@@QAEHJJJJPAV1@JJ@Z @38
	?TransferToDIBFast@RKC_DIB@@QAEHJJPAV1@@Z=o_RKC_DIB.?TransferToDIBFast@RKC_DIB@@QAEHJJPAV1@@Z @39
	?WriteFile@RKC_DIB@@QAEHPAD@Z=o_RKC_DIB.?WriteFile@RKC_DIB@@QAEHPAD@Z @40
	?ZoomToDIB@RKC_DIB@@QAEHPAUtagRECT@@PAV1@0J@Z=o_RKC_DIB.?ZoomToDIB@RKC_DIB@@QAEHPAUtagRECT@@PAV1@0J@Z @41
	?ZoomToDIBEx@RKC_DIB@@QAEHPAUtagRECT@@PAV1@0JJJJ@Z=o_RKC_DIB.?ZoomToDIBEx@RKC_DIB@@QAEHPAUtagRECT@@PAV1@0JJJJ@Z @42
