LIBRARY RKC_DBFCONTROL
EXPORTS
	??0RKC_DBF@@QAE@XZ=o_RKC_DBFCONTROL.??0RKC_DBF@@QAE@XZ @1
	??0RKC_DBFCONTROL@@QAE@XZ=o_RKC_DBFCONTROL.??0RKC_DBFCONTROL@@QAE@XZ @2
	??1RKC_DBF@@QAE@XZ=o_RKC_DBFCONTROL.??1RKC_DBF@@QAE@XZ @3
	??1RKC_DBFCONTROL@@QAE@XZ=o_RKC_DBFCONTROL.??1RKC_DBFCONTROL@@QAE@XZ @4
	??4RKC_DBF@@QAEAAV0@ABV0@@Z=o_RKC_DBFCONTROL.??4RKC_DBF@@QAEAAV0@ABV0@@Z @5
	??4RKC_DBFCONTROL@@QAEAAV0@ABV0@@Z=o_RKC_DBFCONTROL.??4RKC_DBFCONTROL@@QAEAAV0@ABV0@@Z @6
	?Clear@RKC_DBFCONTROL@@QAEHPAUtagRGBQUAD@@@Z=o_RKC_DBFCONTROL.?Clear@RKC_DBFCONTROL@@QAEHPAUtagRGBQUAD@@@Z @7
	?DisableDraw@RKC_DBFCONTROL@@QAEXXZ=o_RKC_DBFCONTROL.?DisableDraw@RKC_DBFCONTROL@@QAEXXZ @8
	?Draw@RKC_DBF@@QAEXXZ=o_RKC_DBFCONTROL.?Draw@RKC_DBF@@QAEXXZ @9
	?Draw@RKC_DBFCONTROL@@QAEPAVRKC_DIB@@XZ=o_RKC_DBFCONTROL.?Draw@RKC_DBFCONTROL@@QAEPAVRKC_DIB@@XZ @10
	?DrawEnd@RKC_DBFCONTROL@@QAEXXZ=o_RKC_DBFCONTROL.?DrawEnd@RKC_DBFCONTROL@@QAEXXZ @11
	?DrawFunction@RKC_DBFCONTROL@@QAEXXZ=o_RKC_DBFCONTROL.?DrawFunction@RKC_DBFCONTROL@@QAEXXZ @12
	?EnableDraw@RKC_DBFCONTROL@@QAEXXZ=o_RKC_DBFCONTROL.?EnableDraw@RKC_DBFCONTROL@@QAEXXZ @13
	?Flush@RKC_DBF@@QAEXXZ=o_RKC_DBFCONTROL.?Flush@RKC_DBF@@QAEXXZ @14
	?FlushDrawCount@RKC_DBFCONTROL@@QAEXXZ=o_RKC_DBFCONTROL.?FlushDrawCount@RKC_DBFCONTROL@@QAEXXZ @15
	?GetClipRect@RKC_DBF@@QAEXPAUtagRECT@@@Z=o_RKC_DBFCONTROL.?GetClipRect@RKC_DBF@@QAEXPAUtagRECT@@@Z @16
	?GetClipRect@RKC_DBFCONTROL@@QAEXPAUtagRECT@@J@Z=o_RKC_DBFCONTROL.?GetClipRect@RKC_DBFCONTROL@@QAEXPAUtagRECT@@J@Z @17
	?GetCurrentDBF@RKC_DBFCONTROL@@QAEPAVRKC_DBF@@XZ=o_RKC_DBFCONTROL.?GetCurrentDBF@RKC_DBFCONTROL@@QAEPAVRKC_DBF@@XZ @18
	?GetDIBitmap@RKC_DBF@@QAEPAVRKC_DIB@@XZ=o_RKC_DBFCONTROL.?GetDIBitmap@RKC_DBF@@QAEPAVRKC_DIB@@XZ @19
	?GetDrawCount@RKC_DBFCONTROL@@QAEJXZ=o_RKC_DBFCONTROL.?GetDrawCount@RKC_DBFCONTROL@@QAEJXZ @20
	?GetDrawThreadHandle@RKC_DBFCONTROL@@QAEPAXXZ=o_RKC_DBFCONTROL.?GetDrawThreadHandle@RKC_DBFCONTROL@@QAEPAXXZ @21
	?GetDrawingFlag@RKC_DBFCONTROL@@QAEHXZ=o_RKC_DBFCONTROL.?GetDrawingFlag@RKC_DBFCONTROL@@QAEHXZ @22
	?GetExStyle@RKC_DBFCONTROL@@QAEJJ@Z=o_RKC_DBFCONTROL.?GetExStyle@RKC_DBFCONTROL@@QAEJJ@Z @23
	?GetFramePerSecond@RKC_DBFCONTROL@@QAEJXZ=o_RKC_DBFCONTROL.?GetFramePerSecond@RKC_DBFCONTROL@@QAEJXZ @24
	?GetPosition@RKC_DBFCONTROL@@QAE?AUtagPOINT@@J@Z=o_RKC_DBFCONTROL.?GetPosition@RKC_DBFCONTROL@@QAE?AUtagPOINT@@J@Z @25
	?GetStyle@RKC_DBFCONTROL@@QAEJJ@Z=o_RKC_DBFCONTROL.?GetStyle@RKC_DBFCONTROL@@QAEJJ@Z @26
	?GetSurface@RKC_DBFCONTROL@@QAEPAUIDirectDrawSurface@@H@Z=o_RKC_DBFCONTROL.?GetSurface@RKC_DBFCONTROL@@QAEPAUIDirectDrawSurface@@H@Z @27
	?GetThreadDrawFlag@RKC_DBFCONTROL@@QAEHXZ=o_RKC_DBFCONTROL.?GetThreadDrawFlag@RKC_DBFCONTROL@@QAEHXZ @28
	?GetVSBlockNo@RKC_DBF@@QAEJXZ=o_RKC_DBFCONTROL.?GetVSBlockNo@RKC_DBF@@QAEJXZ @29
	?GetWindowHandle@RKC_DBFCONTROL@@QAEPAUHWND__@@XZ=o_RKC_DBFCONTROL.?GetWindowHandle@RKC_DBFCONTROL@@QAEPAUHWND__@@XZ @30
	?Initialize@RKC_DBFCONTROL@@QAEHPAUHWND__@@PAVRKC_UPDIB@@JJJP6AHXZJJPAUtagRECT@@HPAUtagRGBQUAD@@J@Z=o_RKC_DBFCONTROL.?Initialize@RKC_DBFCONTROL@@QAEHPAUHWND__@@PAVRKC_UPDIB@@JJJP6AHXZJJPAUtagRECT@@HPAUtagRGBQUAD@@J@Z @31
	?Paint@RKC_DBFCONTROL@@QAEXPAUHDC__@@H@Z=o_RKC_DBFCONTROL.?Paint@RKC_DBFCONTROL@@QAEXPAUHDC__@@H@Z @32
	?Redraw@RKC_DBFCONTROL@@QAEHXZ=o_RKC_DBFCONTROL.?Redraw@RKC_DBFCONTROL@@QAEHXZ @33
	?Release@RKC_DBF@@QAEXXZ=o_RKC_DBFCONTROL.?Release@RKC_DBF@@QAEXXZ @34
	?Release@RKC_DBFCONTROL@@QAEXXZ=o_RKC_DBFCONTROL.?Release@RKC_DBFCONTROL@@QAEXXZ @35
	?SetClipRect@RKC_DBF@@QAEXPAUtagRECT@@@Z=o_RKC_DBFCONTROL.?SetClipRect@RKC_DBF@@QAEXPAUtagRECT@@@Z @36
	?SetClipRect@RKC_DBFCONTROL@@QAEXPAUtagRECT@@@Z=o_RKC_DBFCONTROL.?SetClipRect@RKC_DBFCONTROL@@QAEXPAUtagRECT@@@Z @37
	?SetPaintFunction@RKC_DBFCONTROL@@QAEXP6AXPAUHDC__@@@Z@Z=o_RKC_DBFCONTROL.?SetPaintFunction@RKC_DBFCONTROL@@QAEXP6AXPAUHDC__@@@Z@Z @38
	?SetScreenClear@RKC_DBFCONTROL@@QAEXHPAUtagRGBQUAD@@@Z=o_RKC_DBFCONTROL.?SetScreenClear@RKC_DBFCONTROL@@QAEXHPAUtagRGBQUAD@@@Z @39
	?StartAll@RKC_DBFCONTROL@@QAEXXZ=o_RKC_DBFCONTROL.?StartAll@RKC_DBFCONTROL@@QAEXXZ @40
	?StopAll@RKC_DBFCONTROL@@QAEXXZ=o_RKC_DBFCONTROL.?StopAll@RKC_DBFCONTROL@@QAEXXZ @41
