LIBRARY RKC_RPG_TABLE
EXPORTS
	??0RKC_RPG_TABLE@@QAE@XZ=RKC_RPG_TABLE_constructor @1
	??0RKC_RPG_TABLEDATA@@QAE@XZ=RKC_RPG_TABLEDATA_constructor @2
	??1RKC_RPG_TABLE@@QAE@XZ=RKC_TABLE_deconstructor @3
	??1RKC_RPG_TABLEDATA@@QAE@XZ=RKC_RPG_TABLEDATA_deconstructor @4
	??4RKC_RPG_TABLE@@QAEAAV0@ABV0@@Z=RKC_TABLE_equalsOperator @5
	??4RKC_RPG_TABLEDATA@@QAEAAV0@ABV0@@Z=RKC_RPG_TABLEDATA_equalsOperator @6
	?Delete@RKC_RPG_TABLE@@QAEHJPAPAVRKC_RPG_TABLEDATA@@@Z=Delete @7
	?Get@RKC_RPG_TABLE@@QAEPAVRKC_RPG_TABLEDATA@@J@Z=Get @8
	?GetColCount@RKC_RPG_TABLEDATA@@QAEJXZ=GetColCount @9
	?GetCount@RKC_RPG_TABLE@@QAEJXZ=GetCount @10
	?GetFromTableNo@RKC_RPG_TABLE@@QAEPAVRKC_RPG_TABLEDATA@@J@Z=GetFromTableNo @11
	?GetNo@RKC_RPG_TABLE@@QAEJPAVRKC_RPG_TABLEDATA@@@Z=GetNo @12
	?GetRowCount@RKC_RPG_TABLEDATA@@QAEJXZ=GetRowCount @13
	?GetStrings@RKC_RPG_TABLEDATA@@QAEPADJJ@Z=GetStrings @14
	?GetStringsTable@RKC_RPG_TABLEDATA@@QAEPAPAPADXZ=GetStringsTable @15
	?GetTable@RKC_RPG_TABLEDATA@@QAEPAPAJXZ=GetTable @16
	?GetTableNo@RKC_RPG_TABLEDATA@@QAEJXZ=GetTableNo @17
	?GetValue@RKC_RPG_TABLEDATA@@QAEJJJ@Z=GetValue @18
	?Insert@RKC_RPG_TABLE@@QAEPAVRKC_RPG_TABLEDATA@@JPAV2@@Z=Insert @19
	?ReadAllTextTable@RKC_RPG_TABLE@@QAEHPAD@Z=ReadAllTextTable @20
	?ReadBinaryFile@RKC_RPG_TABLE@@QAEHPAD@Z=ReadBinaryFile @21
	?ReadTextTable@RKC_RPG_TABLEDATA@@QAEHPAD@Z=ReadTextTable @22
	?Release@RKC_RPG_TABLE@@QAEXXZ=o_RKC_RPG_TABLE.?Release@RKC_RPG_TABLE@@QAEXXZ @23
	?Release@RKC_RPG_TABLEDATA@@QAEXXZ=RKC_RPG_TABLEDATA_Release @24
	?WriteBinaryFile@RKC_RPG_TABLE@@QAEHPAD@Z=WriteBinaryFile @25
