LIBRARY RKC_NETWORK
EXPORTS
	??0RKC_NETWORK@@QAE@XZ=o_RKC_NETWORK.??0RKC_NETWORK@@QAE@XZ @1
	??0RKC_NETWORK_CLIENT@@QAE@XZ=o_RKC_NETWORK.??0RKC_NETWORK_CLIENT@@QAE@XZ @2
	??0RKC_NETWORK_PACKET@@QAE@XZ=o_RKC_NETWORK.??0RKC_NETWORK_PACKET@@QAE@XZ @3
	??0RKC_NETWORK_PACKETBLOCK@@QAE@XZ=o_RKC_NETWORK.??0RKC_NETWORK_PACKETBLOCK@@QAE@XZ @4
	??0RKC_NETWORK_SERVER@@QAE@XZ=o_RKC_NETWORK.??0RKC_NETWORK_SERVER@@QAE@XZ @5
	??0RKC_NETWORK_SERVER_CONNECTION@@QAE@XZ=o_RKC_NETWORK.??0RKC_NETWORK_SERVER_CONNECTION@@QAE@XZ @6
	??0RKC_NETWORK_SERVER_SOCKET@@QAE@XZ=o_RKC_NETWORK.??0RKC_NETWORK_SERVER_SOCKET@@QAE@XZ @7
	??0RKC_NETWORK_SERVER_SOCKETCOMP@@QAE@XZ=o_RKC_NETWORK.??0RKC_NETWORK_SERVER_SOCKETCOMP@@QAE@XZ @8
	??0RKC_NETWORK_TRANSFER@@QAE@XZ=o_RKC_NETWORK.??0RKC_NETWORK_TRANSFER@@QAE@XZ @9
	??0RKC_NETWORK_USERINFO@@QAE@XZ=o_RKC_NETWORK.??0RKC_NETWORK_USERINFO@@QAE@XZ @10
	??0RKC_NETWORK_USERINFOBLOCK@@QAE@XZ=o_RKC_NETWORK.??0RKC_NETWORK_USERINFOBLOCK@@QAE@XZ @11
	??1RKC_NETWORK@@QAE@XZ=o_RKC_NETWORK.??1RKC_NETWORK@@QAE@XZ @12
	??1RKC_NETWORK_CLIENT@@QAE@XZ=o_RKC_NETWORK.??1RKC_NETWORK_CLIENT@@QAE@XZ @13
	??1RKC_NETWORK_PACKET@@QAE@XZ=o_RKC_NETWORK.??1RKC_NETWORK_PACKET@@QAE@XZ @14
	??1RKC_NETWORK_PACKETBLOCK@@QAE@XZ=o_RKC_NETWORK.??1RKC_NETWORK_PACKETBLOCK@@QAE@XZ @15
	??1RKC_NETWORK_SERVER@@QAE@XZ=o_RKC_NETWORK.??1RKC_NETWORK_SERVER@@QAE@XZ @16
	??1RKC_NETWORK_SERVER_CONNECTION@@QAE@XZ=o_RKC_NETWORK.??1RKC_NETWORK_SERVER_CONNECTION@@QAE@XZ @17
	??1RKC_NETWORK_SERVER_SOCKET@@QAE@XZ=o_RKC_NETWORK.??1RKC_NETWORK_SERVER_SOCKET@@QAE@XZ @18
	??1RKC_NETWORK_SERVER_SOCKETCOMP@@QAE@XZ=o_RKC_NETWORK.??1RKC_NETWORK_SERVER_SOCKETCOMP@@QAE@XZ @19
	??1RKC_NETWORK_TRANSFER@@QAE@XZ=o_RKC_NETWORK.??1RKC_NETWORK_TRANSFER@@QAE@XZ @20
	??1RKC_NETWORK_USERINFO@@QAE@XZ=o_RKC_NETWORK.??1RKC_NETWORK_USERINFO@@QAE@XZ @21
	??1RKC_NETWORK_USERINFOBLOCK@@QAE@XZ=o_RKC_NETWORK.??1RKC_NETWORK_USERINFOBLOCK@@QAE@XZ @22
	??4RKC_NETWORK@@QAEAAV0@ABV0@@Z=o_RKC_NETWORK.??4RKC_NETWORK@@QAEAAV0@ABV0@@Z @23
	??4RKC_NETWORK_CLIENT@@QAEAAV0@ABV0@@Z=o_RKC_NETWORK.??4RKC_NETWORK_CLIENT@@QAEAAV0@ABV0@@Z @24
	??4RKC_NETWORK_PACKET@@QAEAAV0@ABV0@@Z=o_RKC_NETWORK.??4RKC_NETWORK_PACKET@@QAEAAV0@ABV0@@Z @25
	??4RKC_NETWORK_PACKETBLOCK@@QAEAAV0@ABV0@@Z=o_RKC_NETWORK.??4RKC_NETWORK_PACKETBLOCK@@QAEAAV0@ABV0@@Z @26
	??4RKC_NETWORK_SERVER@@QAEAAV0@ABV0@@Z=o_RKC_NETWORK.??4RKC_NETWORK_SERVER@@QAEAAV0@ABV0@@Z @27
	??4RKC_NETWORK_SERVER_CONNECTION@@QAEAAV0@ABV0@@Z=o_RKC_NETWORK.??4RKC_NETWORK_SERVER_CONNECTION@@QAEAAV0@ABV0@@Z @28
	??4RKC_NETWORK_SERVER_SOCKET@@QAEAAV0@ABV0@@Z=o_RKC_NETWORK.??4RKC_NETWORK_SERVER_SOCKET@@QAEAAV0@ABV0@@Z @29
	??4RKC_NETWORK_SERVER_SOCKETCOMP@@QAEAAV0@ABV0@@Z=o_RKC_NETWORK.??4RKC_NETWORK_SERVER_SOCKETCOMP@@QAEAAV0@ABV0@@Z @30
	??4RKC_NETWORK_TRANSFER@@QAEAAV0@ABV0@@Z=o_RKC_NETWORK.??4RKC_NETWORK_TRANSFER@@QAEAAV0@ABV0@@Z @31
	??4RKC_NETWORK_USERINFO@@QAEAAV0@ABV0@@Z=o_RKC_NETWORK.??4RKC_NETWORK_USERINFO@@QAEAAV0@ABV0@@Z @32
	??4RKC_NETWORK_USERINFOBLOCK@@QAEAAV0@ABV0@@Z=o_RKC_NETWORK.??4RKC_NETWORK_USERINFOBLOCK@@QAEAAV0@ABV0@@Z @33
	?AcceptThreadFunction@RKC_NETWORK_SERVER@@QAEXXZ=o_RKC_NETWORK.?AcceptThreadFunction@RKC_NETWORK_SERVER@@QAEXXZ @34
	?AllocateData@RKC_NETWORK_PACKET@@QAEXJ@Z=o_RKC_NETWORK.?AllocateData@RKC_NETWORK_PACKET@@QAEXJ@Z @35
	?Append@RKC_NETWORK_USERINFOBLOCK@@QAEPAVRKC_NETWORK_USERINFO@@XZ=o_RKC_NETWORK.?Append@RKC_NETWORK_USERINFOBLOCK@@QAEPAVRKC_NETWORK_USERINFO@@XZ @36
	?Connect@RKC_NETWORK_CLIENT@@QAEHJ@Z=o_RKC_NETWORK.?Connect@RKC_NETWORK_CLIENT@@QAEHJ@Z @37
	?ConnectThread@RKC_NETWORK_CLIENT@@QAEXXZ=o_RKC_NETWORK.?ConnectThread@RKC_NETWORK_CLIENT@@QAEXXZ @38
	?ConnectionThread@RKC_NETWORK_CLIENT@@QAEXJ@Z=o_RKC_NETWORK.?ConnectionThread@RKC_NETWORK_CLIENT@@QAEXJ@Z @39
	?ConnectionThread@RKC_NETWORK_SERVER_CONNECTION@@QAEXJ@Z=o_RKC_NETWORK.?ConnectionThread@RKC_NETWORK_SERVER_CONNECTION@@QAEXJ@Z @40
	?CreateConnectionThread@RKC_NETWORK_CLIENT@@QAEHJ@Z=o_RKC_NETWORK.?CreateConnectionThread@RKC_NETWORK_CLIENT@@QAEHJ@Z @41
	?CreateConnectionThread@RKC_NETWORK_SERVER_CONNECTION@@QAEHJ@Z=o_RKC_NETWORK.?CreateConnectionThread@RKC_NETWORK_SERVER_CONNECTION@@QAEHJ@Z @42
	?Delete@RKC_NETWORK_PACKETBLOCK@@QAEHJ@Z=o_RKC_NETWORK.?Delete@RKC_NETWORK_PACKETBLOCK@@QAEHJ@Z @43
	?Delete@RKC_NETWORK_PACKETBLOCK@@QAEHPAVRKC_NETWORK_PACKET@@@Z=o_RKC_NETWORK.?Delete@RKC_NETWORK_PACKETBLOCK@@QAEHPAVRKC_NETWORK_PACKET@@@Z @44
	?Delete@RKC_NETWORK_USERINFOBLOCK@@QAEHJ@Z=o_RKC_NETWORK.?Delete@RKC_NETWORK_USERINFOBLOCK@@QAEHJ@Z @45
	?DeleteRecvPacket@RKC_NETWORK_CLIENT@@QAEHPAVRKC_NETWORK_PACKET@@@Z=o_RKC_NETWORK.?DeleteRecvPacket@RKC_NETWORK_CLIENT@@QAEHPAVRKC_NETWORK_PACKET@@@Z @46
	?DeleteRecvPacket@RKC_NETWORK_SERVER_CONNECTION@@QAEHPAVRKC_NETWORK_PACKET@@@Z=o_RKC_NETWORK.?DeleteRecvPacket@RKC_NETWORK_SERVER_CONNECTION@@QAEHPAVRKC_NETWORK_PACKET@@@Z @47
	?Get@RKC_NETWORK_PACKETBLOCK@@QAEPAVRKC_NETWORK_PACKET@@J@Z=o_RKC_NETWORK.?Get@RKC_NETWORK_PACKETBLOCK@@QAEPAVRKC_NETWORK_PACKET@@J@Z @48
	?Get@RKC_NETWORK_SERVER_SOCKET@@QAEIXZ=o_RKC_NETWORK.?Get@RKC_NETWORK_SERVER_SOCKET@@QAEIXZ @49
	?Get@RKC_NETWORK_USERINFOBLOCK@@QAEPAVRKC_NETWORK_USERINFO@@J@Z=o_RKC_NETWORK.?Get@RKC_NETWORK_USERINFOBLOCK@@QAEPAVRKC_NETWORK_USERINFO@@J@Z @50
	?GetActiveConnectionCount@RKC_NETWORK_SERVER@@QAEJXZ=o_RKC_NETWORK.?GetActiveConnectionCount@RKC_NETWORK_SERVER@@QAEJXZ @51
	?GetActiveFlag@RKC_NETWORK_CLIENT@@QAEHXZ=o_RKC_NETWORK.?GetActiveFlag@RKC_NETWORK_CLIENT@@QAEHXZ @52
	?GetActiveFlag@RKC_NETWORK_SERVER@@QAEHXZ=o_RKC_NETWORK.?GetActiveFlag@RKC_NETWORK_SERVER@@QAEHXZ @53
	?GetClient@RKC_NETWORK@@QAEPAVRKC_NETWORK_CLIENT@@XZ=o_RKC_NETWORK.?GetClient@RKC_NETWORK@@QAEPAVRKC_NETWORK_CLIENT@@XZ @54
	?GetConnection@RKC_NETWORK_SERVER@@QAEPAVRKC_NETWORK_SERVER_CONNECTION@@J@Z=o_RKC_NETWORK.?GetConnection@RKC_NETWORK_SERVER@@QAEPAVRKC_NETWORK_SERVER_CONNECTION@@J@Z @55
	?GetConnection@RKC_NETWORK_SERVER@@QAEPAVRKC_NETWORK_SERVER_CONNECTION@@JPAURKC_NETWORK_IP@@J@Z=o_RKC_NETWORK.?GetConnection@RKC_NETWORK_SERVER@@QAEPAVRKC_NETWORK_SERVER_CONNECTION@@JPAURKC_NETWORK_IP@@J@Z @56
	?GetConnectionCount@RKC_NETWORK_SERVER@@QAEJXZ=o_RKC_NETWORK.?GetConnectionCount@RKC_NETWORK_SERVER@@QAEJXZ @57
	?GetConnectionID@RKC_NETWORK_CLIENT@@QAEJXZ=o_RKC_NETWORK.?GetConnectionID@RKC_NETWORK_CLIENT@@QAEJXZ @58
	?GetCount@RKC_NETWORK_PACKETBLOCK@@QAEJJ@Z=o_RKC_NETWORK.?GetCount@RKC_NETWORK_PACKETBLOCK@@QAEJJ@Z @59
	?GetCount@RKC_NETWORK_PACKETBLOCK@@QAEJXZ=o_RKC_NETWORK.?GetCount@RKC_NETWORK_PACKETBLOCK@@QAEJXZ @60
	?GetCount@RKC_NETWORK_USERINFOBLOCK@@QAEJXZ=o_RKC_NETWORK.?GetCount@RKC_NETWORK_USERINFOBLOCK@@QAEJXZ @61
	?GetData@RKC_NETWORK_PACKET@@QAEPAXXZ=o_RKC_NETWORK.?GetData@RKC_NETWORK_PACKET@@QAEPAXXZ @62
	?GetDisc@RKC_NETWORK_PACKET@@QAEJXZ=o_RKC_NETWORK.?GetDisc@RKC_NETWORK_PACKET@@QAEJXZ @63
	?GetEmptyConnection@RKC_NETWORK_SERVER@@QAEPAVRKC_NETWORK_SERVER_CONNECTION@@XZ=o_RKC_NETWORK.?GetEmptyConnection@RKC_NETWORK_SERVER@@QAEPAVRKC_NETWORK_SERVER_CONNECTION@@XZ @64
	?GetFromID@RKC_NETWORK_USERINFOBLOCK@@QAEPAVRKC_NETWORK_USERINFO@@J@Z=o_RKC_NETWORK.?GetFromID@RKC_NETWORK_USERINFOBLOCK@@QAEPAVRKC_NETWORK_USERINFO@@J@Z @65
	?GetFromName@RKC_NETWORK_USERINFOBLOCK@@QAEPAVRKC_NETWORK_USERINFO@@PAD@Z=o_RKC_NETWORK.?GetFromName@RKC_NETWORK_USERINFOBLOCK@@QAEPAVRKC_NETWORK_USERINFO@@PAD@Z @66
	?GetID@RKC_NETWORK_PACKET@@QAEJXZ=o_RKC_NETWORK.?GetID@RKC_NETWORK_PACKET@@QAEJXZ @67
	?GetID@RKC_NETWORK_SERVER_CONNECTION@@QAEJXZ=o_RKC_NETWORK.?GetID@RKC_NETWORK_SERVER_CONNECTION@@QAEJXZ @68
	?GetID@RKC_NETWORK_USERINFO@@QAEJXZ=o_RKC_NETWORK.?GetID@RKC_NETWORK_USERINFO@@QAEJXZ @69
	?GetIP@RKC_NETWORK_CLIENT@@QAEPAURKC_NETWORK_IP@@XZ=o_RKC_NETWORK.?GetIP@RKC_NETWORK_CLIENT@@QAEPAURKC_NETWORK_IP@@XZ @70
	?GetIP@RKC_NETWORK_SERVER@@QAEXPAURKC_NETWORK_IP@@@Z=o_RKC_NETWORK.?GetIP@RKC_NETWORK_SERVER@@QAEXPAURKC_NETWORK_IP@@@Z @71
	?GetIP@RKC_NETWORK_SERVER_CONNECTION@@QAEPAURKC_NETWORK_IP@@XZ=o_RKC_NETWORK.?GetIP@RKC_NETWORK_SERVER_CONNECTION@@QAEPAURKC_NETWORK_IP@@XZ @72
	?GetInfoID@RKC_NETWORK_PACKET@@QAEJXZ=o_RKC_NETWORK.?GetInfoID@RKC_NETWORK_PACKET@@QAEJXZ @73
	?GetLine@RKC_NETWORK_PACKET@@QAEJXZ=o_RKC_NETWORK.?GetLine@RKC_NETWORK_PACKET@@QAEJXZ @74
	?GetMyIP@RKC_NETWORK_CLIENT@@QAEXPAURKC_NETWORK_IP@@@Z=o_RKC_NETWORK.?GetMyIP@RKC_NETWORK_CLIENT@@QAEXPAURKC_NETWORK_IP@@@Z @75
	?GetNext@RKC_NETWORK_PACKET@@QAEPAV1@XZ=o_RKC_NETWORK.?GetNext@RKC_NETWORK_PACKET@@QAEPAV1@XZ @76
	?GetNo@RKC_NETWORK_PACKETBLOCK@@QAEJPAVRKC_NETWORK_PACKET@@@Z=o_RKC_NETWORK.?GetNo@RKC_NETWORK_PACKETBLOCK@@QAEJPAVRKC_NETWORK_PACKET@@@Z @77
	?GetPassword@RKC_NETWORK_USERINFO@@QAEPADXZ=o_RKC_NETWORK.?GetPassword@RKC_NETWORK_USERINFO@@QAEPADXZ @78
	?GetRecvPacket@RKC_NETWORK_CLIENT@@QAEPAVRKC_NETWORK_PACKET@@JJ@Z=o_RKC_NETWORK.?GetRecvPacket@RKC_NETWORK_CLIENT@@QAEPAVRKC_NETWORK_PACKET@@JJ@Z @79
	?GetRecvPacket@RKC_NETWORK_SERVER_CONNECTION@@QAEPAVRKC_NETWORK_PACKET@@JJ@Z=o_RKC_NETWORK.?GetRecvPacket@RKC_NETWORK_SERVER_CONNECTION@@QAEPAVRKC_NETWORK_PACKET@@JJ@Z @80
	?GetRecvPacketBlock@RKC_NETWORK_CLIENT@@QAEPAVRKC_NETWORK_PACKETBLOCK@@XZ=o_RKC_NETWORK.?GetRecvPacketBlock@RKC_NETWORK_CLIENT@@QAEPAVRKC_NETWORK_PACKETBLOCK@@XZ @81
	?GetRecvPacketBlock@RKC_NETWORK_SERVER_CONNECTION@@QAEPAVRKC_NETWORK_PACKETBLOCK@@XZ=o_RKC_NETWORK.?GetRecvPacketBlock@RKC_NETWORK_SERVER_CONNECTION@@QAEPAVRKC_NETWORK_PACKETBLOCK@@XZ @82
	?GetSendPacketBlock@RKC_NETWORK_CLIENT@@QAEPAVRKC_NETWORK_PACKETBLOCK@@XZ=o_RKC_NETWORK.?GetSendPacketBlock@RKC_NETWORK_CLIENT@@QAEPAVRKC_NETWORK_PACKETBLOCK@@XZ @83
	?GetSendPacketBlock@RKC_NETWORK_SERVER_CONNECTION@@QAEPAVRKC_NETWORK_PACKETBLOCK@@XZ=o_RKC_NETWORK.?GetSendPacketBlock@RKC_NETWORK_SERVER_CONNECTION@@QAEPAVRKC_NETWORK_PACKETBLOCK@@XZ @84
	?GetServer@RKC_NETWORK@@QAEPAVRKC_NETWORK_SERVER@@XZ=o_RKC_NETWORK.?GetServer@RKC_NETWORK@@QAEPAVRKC_NETWORK_SERVER@@XZ @85
	?GetSize@RKC_NETWORK_PACKET@@QAEJXZ=o_RKC_NETWORK.?GetSize@RKC_NETWORK_PACKET@@QAEJXZ @86
	?GetSocket@RKC_NETWORK_SERVER_CONNECTION@@QAEIJ@Z=o_RKC_NETWORK.?GetSocket@RKC_NETWORK_SERVER_CONNECTION@@QAEIJ@Z @87
	?GetSocketCount@RKC_NETWORK_SERVER@@QAEJXZ=o_RKC_NETWORK.?GetSocketCount@RKC_NETWORK_SERVER@@QAEJXZ @88
	?GetStatus@RKC_NETWORK_SERVER_CONNECTION@@QAEJXZ=o_RKC_NETWORK.?GetStatus@RKC_NETWORK_SERVER_CONNECTION@@QAEJXZ @89
	?GetUseConnection@RKC_NETWORK_SERVER@@QAEPAVRKC_NETWORK_SERVER_CONNECTION@@JPAURKC_NETWORK_IP@@J@Z=o_RKC_NETWORK.?GetUseConnection@RKC_NETWORK_SERVER@@QAEPAVRKC_NETWORK_SERVER_CONNECTION@@JPAURKC_NETWORK_IP@@J@Z @90
	?GetUserData@RKC_NETWORK_USERINFO@@QAEPAXXZ=o_RKC_NETWORK.?GetUserData@RKC_NETWORK_USERINFO@@QAEPAXXZ @91
	?GetUserID@RKC_NETWORK_SERVER_CONNECTION@@QAEJXZ=o_RKC_NETWORK.?GetUserID@RKC_NETWORK_SERVER_CONNECTION@@QAEJXZ @92
	?GetUserInfo@RKC_NETWORK_CLIENT@@QAEPAVRKC_NETWORK_USERINFO@@XZ=o_RKC_NETWORK.?GetUserInfo@RKC_NETWORK_CLIENT@@QAEPAVRKC_NETWORK_USERINFO@@XZ @93
	?GetUserInfoBlock@RKC_NETWORK_SERVER@@QAEPAVRKC_NETWORK_USERINFOBLOCK@@XZ=o_RKC_NETWORK.?GetUserInfoBlock@RKC_NETWORK_SERVER@@QAEPAVRKC_NETWORK_USERINFOBLOCK@@XZ @94
	?GetUserNameA@RKC_NETWORK_USERINFO@@QAEPADXZ=o_RKC_NETWORK.?GetUserNameA@RKC_NETWORK_USERINFO@@QAEPADXZ @95
	?Initialize@RKC_NETWORK_CLIENT@@QAEHPAURKC_NETWORK_IP@@JPAVRKC_NETWORK_USERINFO@@JJJ@Z=o_RKC_NETWORK.?Initialize@RKC_NETWORK_CLIENT@@QAEHPAURKC_NETWORK_IP@@JPAVRKC_NETWORK_USERINFO@@JJJ@Z @96
	?Initialize@RKC_NETWORK_SERVER@@QAEHJJPAVRKC_NETWORK_USERINFOBLOCK@@JJJ@Z=o_RKC_NETWORK.?Initialize@RKC_NETWORK_SERVER@@QAEHJJPAVRKC_NETWORK_USERINFOBLOCK@@JJJ@Z @97
	?Insert@RKC_NETWORK_PACKETBLOCK@@QAEPAVRKC_NETWORK_PACKET@@J@Z=o_RKC_NETWORK.?Insert@RKC_NETWORK_PACKETBLOCK@@QAEPAVRKC_NETWORK_PACKET@@J@Z @98
	?InsertComparisionSocket@RKC_NETWORK_SERVER_SOCKETCOMP@@QAEHI@Z=o_RKC_NETWORK.?InsertComparisionSocket@RKC_NETWORK_SERVER_SOCKETCOMP@@QAEHI@Z @99
	?Recv@RKC_NETWORK_TRANSFER@@QAEHIPAEJ@Z=o_RKC_NETWORK.?Recv@RKC_NETWORK_TRANSFER@@QAEHIPAEJ@Z @100
	?RecvSub@RKC_NETWORK_TRANSFER@@AAEHIPAEJ@Z=o_RKC_NETWORK.?RecvSub@RKC_NETWORK_TRANSFER@@AAEHIPAEJ@Z @101
	?Release@RKC_NETWORK_CLIENT@@QAEXXZ=o_RKC_NETWORK.?Release@RKC_NETWORK_CLIENT@@QAEXXZ @102
	?Release@RKC_NETWORK_PACKET@@QAEXXZ=o_RKC_NETWORK.?Release@RKC_NETWORK_PACKET@@QAEXXZ @103
	?Release@RKC_NETWORK_PACKETBLOCK@@QAEXXZ=o_RKC_NETWORK.?Release@RKC_NETWORK_PACKETBLOCK@@QAEXXZ @104
	?Release@RKC_NETWORK_SERVER@@QAEXXZ=o_RKC_NETWORK.?Release@RKC_NETWORK_SERVER@@QAEXXZ @105
	?Release@RKC_NETWORK_SERVER_CONNECTION@@QAEXXZ=o_RKC_NETWORK.?Release@RKC_NETWORK_SERVER_CONNECTION@@QAEXXZ @106
	?Release@RKC_NETWORK_SERVER_SOCKETCOMP@@QAEXXZ=o_RKC_NETWORK.?Release@RKC_NETWORK_SERVER_SOCKETCOMP@@QAEXXZ @107
	?Release@RKC_NETWORK_USERINFOBLOCK@@QAEXXZ=o_RKC_NETWORK.?Release@RKC_NETWORK_USERINFOBLOCK@@QAEXXZ @108
	?ResetMutex@RKC_NETWORK@@QAEHXZ=o_RKC_NETWORK.?ResetMutex@RKC_NETWORK@@QAEHXZ @109
	?Send@RKC_NETWORK_TRANSFER@@QAEHIPAEJ@Z=o_RKC_NETWORK.?Send@RKC_NETWORK_TRANSFER@@QAEHIPAEJ@Z @110
	?SendSub@RKC_NETWORK_TRANSFER@@AAEHIPAEJ@Z=o_RKC_NETWORK.?SendSub@RKC_NETWORK_TRANSFER@@AAEHIPAEJ@Z @111
	?SetDisc@RKC_NETWORK_PACKET@@QAEXJ@Z=o_RKC_NETWORK.?SetDisc@RKC_NETWORK_PACKET@@QAEXJ@Z @112
	?SetID@RKC_NETWORK_PACKET@@QAEXJ@Z=o_RKC_NETWORK.?SetID@RKC_NETWORK_PACKET@@QAEXJ@Z @113
	?SetID@RKC_NETWORK_SERVER_CONNECTION@@QAEXJ@Z=o_RKC_NETWORK.?SetID@RKC_NETWORK_SERVER_CONNECTION@@QAEXJ@Z @114
	?SetID@RKC_NETWORK_USERINFO@@QAEXJ@Z=o_RKC_NETWORK.?SetID@RKC_NETWORK_USERINFO@@QAEXJ@Z @115
	?SetIP@RKC_NETWORK_SERVER_CONNECTION@@QAEXPAURKC_NETWORK_IP@@@Z=o_RKC_NETWORK.?SetIP@RKC_NETWORK_SERVER_CONNECTION@@QAEXPAURKC_NETWORK_IP@@@Z @116
	?SetInfoID@RKC_NETWORK_PACKET@@QAEXJ@Z=o_RKC_NETWORK.?SetInfoID@RKC_NETWORK_PACKET@@QAEXJ@Z @117
	?SetLine@RKC_NETWORK_PACKET@@QAEXJ@Z=o_RKC_NETWORK.?SetLine@RKC_NETWORK_PACKET@@QAEXJ@Z @118
	?SetMutex@RKC_NETWORK@@QAEHXZ=o_RKC_NETWORK.?SetMutex@RKC_NETWORK@@QAEHXZ @119
	?SetParam@RKC_NETWORK_PACKET@@QAEXJJJJPAXJ@Z=o_RKC_NETWORK.?SetParam@RKC_NETWORK_PACKET@@QAEXJJJJPAXJ@Z @120
	?SetPassword@RKC_NETWORK_USERINFO@@QAEXPAD@Z=o_RKC_NETWORK.?SetPassword@RKC_NETWORK_USERINFO@@QAEXPAD@Z @121
	?SetSendPacket@RKC_NETWORK_CLIENT@@QAEJJJJPAXJHH@Z=o_RKC_NETWORK.?SetSendPacket@RKC_NETWORK_CLIENT@@QAEJJJJPAXJHH@Z @122
	?SetSendPacket@RKC_NETWORK_SERVER_CONNECTION@@QAEJJJJPAXJHH@Z=o_RKC_NETWORK.?SetSendPacket@RKC_NETWORK_SERVER_CONNECTION@@QAEJJJJPAXJHH@Z @123
	?SetSocket@RKC_NETWORK_SERVER_CONNECTION@@QAEXJI@Z=o_RKC_NETWORK.?SetSocket@RKC_NETWORK_SERVER_CONNECTION@@QAEXJI@Z @124
	?SetStatus@RKC_NETWORK_SERVER_CONNECTION@@QAEXJ@Z=o_RKC_NETWORK.?SetStatus@RKC_NETWORK_SERVER_CONNECTION@@QAEXJ@Z @125
	?SetUserData@RKC_NETWORK_USERINFO@@QAEXPAX@Z=o_RKC_NETWORK.?SetUserData@RKC_NETWORK_USERINFO@@QAEXPAX@Z @126
	?SetUserID@RKC_NETWORK_SERVER_CONNECTION@@QAEXJ@Z=o_RKC_NETWORK.?SetUserID@RKC_NETWORK_SERVER_CONNECTION@@QAEXJ@Z @127
	?SetUserName@RKC_NETWORK_USERINFO@@QAEXPAD@Z=o_RKC_NETWORK.?SetUserName@RKC_NETWORK_USERINFO@@QAEXPAD@Z @128
	?SocketComparisionThread@RKC_NETWORK_SERVER_SOCKET@@QAEXXZ=o_RKC_NETWORK.?SocketComparisionThread@RKC_NETWORK_SERVER_SOCKET@@QAEXXZ @129
	?Start@RKC_NETWORK_SERVER@@QAEHXZ=o_RKC_NETWORK.?Start@RKC_NETWORK_SERVER@@QAEHXZ @130
	?Stop@RKC_NETWORK_SERVER@@QAEHXZ=o_RKC_NETWORK.?Stop@RKC_NETWORK_SERVER@@QAEHXZ @131
